
helloagain.elf:     file format elf32-littlenios2
helloagain.elf
architecture: nios2:r1, flags 0x00000112:
EXEC_P, HAS_SYMS, D_PAGED
start address 0x01000244

Program Header:
    LOAD off    0x00001000 vaddr 0x00000000 paddr 0x00000000 align 2**12
         filesz 0x00000000 memsz 0x00000000 flags r-x
    LOAD off    0x00001020 vaddr 0x01000020 paddr 0x01000020 align 2**12
         filesz 0x0002a750 memsz 0x00036940 flags rwx

Sections:
Idx Name          Size      VMA       LMA       File off  Algn
  0 .entry        00000000  00000000  00000000  00001000  2**5
                  CONTENTS, ALLOC, LOAD, READONLY, CODE
  1 .exceptions   00000224  01000020  01000020  00001020  2**2
                  CONTENTS, ALLOC, LOAD, READONLY, CODE
  2 .text         0001f2e4  01000244  01000244  00001244  2**2
                  CONTENTS, ALLOC, LOAD, READONLY, CODE
  3 .rodata       00009628  0101f528  0101f528  00020528  2**2
                  CONTENTS, ALLOC, LOAD, READONLY, DATA
  4 .rwdata       00001c20  01028b50  01028b50  00029b50  2**2
                  CONTENTS, ALLOC, LOAD, DATA, SMALL_DATA
  5 .bss          0000c1f0  0102a770  0102a770  0002b770  2**2
                  ALLOC, SMALL_DATA
  6 .generic_tristate_controller 00000000  00000020  00000020  0002b770  2**0
                  CONTENTS
  7 .sdram        00000000  01036960  01036960  0002b770  2**0
                  CONTENTS
  8 .comment      00000023  00000000  00000000  0002b770  2**0
                  CONTENTS, READONLY
  9 .debug_aranges 00001358  00000000  00000000  0002b798  2**3
                  CONTENTS, READONLY, DEBUGGING
 10 .debug_info   0002e31b  00000000  00000000  0002caf0  2**0
                  CONTENTS, READONLY, DEBUGGING
 11 .debug_abbrev 0000c12b  00000000  00000000  0005ae0b  2**0
                  CONTENTS, READONLY, DEBUGGING
 12 .debug_line   0001034c  00000000  00000000  00066f36  2**0
                  CONTENTS, READONLY, DEBUGGING
 13 .debug_frame  00003778  00000000  00000000  00077284  2**2
                  CONTENTS, READONLY, DEBUGGING
 14 .debug_str    00004f10  00000000  00000000  0007a9fc  2**0
                  CONTENTS, READONLY, DEBUGGING
 15 .debug_loc    000213d8  00000000  00000000  0007f90c  2**0
                  CONTENTS, READONLY, DEBUGGING
 16 .debug_alt_sim_info 00000040  00000000  00000000  000a0ce4  2**2
                  CONTENTS, READONLY, DEBUGGING
 17 .debug_ranges 00002200  00000000  00000000  000a0d28  2**3
                  CONTENTS, READONLY, DEBUGGING
 18 .thread_model 00000003  00000000  00000000  000a78d2  2**0
                  CONTENTS, READONLY
 19 .cpu          00000003  00000000  00000000  000a78d5  2**0
                  CONTENTS, READONLY
 20 .qsys         00000001  00000000  00000000  000a78d8  2**0
                  CONTENTS, READONLY
 21 .simulation_enabled 00000001  00000000  00000000  000a78d9  2**0
                  CONTENTS, READONLY
 22 .sysid_hash   00000004  00000000  00000000  000a78da  2**0
                  CONTENTS, READONLY
 23 .sysid_base   00000004  00000000  00000000  000a78de  2**0
                  CONTENTS, READONLY
 24 .sysid_time   00000004  00000000  00000000  000a78e2  2**0
                  CONTENTS, READONLY
 25 .stderr_dev   00000009  00000000  00000000  000a78e6  2**0
                  CONTENTS, READONLY
 26 .stdin_dev    00000009  00000000  00000000  000a78ef  2**0
                  CONTENTS, READONLY
 27 .stdout_dev   00000009  00000000  00000000  000a78f8  2**0
                  CONTENTS, READONLY
 28 .sopc_system_name 00000005  00000000  00000000  000a7901  2**0
                  CONTENTS, READONLY
 29 .quartus_project_dir 00000041  00000000  00000000  000a7906  2**0
                  CONTENTS, READONLY
 30 .jdi          00004aba  00000000  00000000  000a7947  2**0
                  CONTENTS, READONLY
 31 .sopcinfo     000b6873  00000000  00000000  000ac401  2**0
                  CONTENTS, READONLY
SYMBOL TABLE:
00000000 l    d  .entry	00000000 .entry
01000020 l    d  .exceptions	00000000 .exceptions
01000244 l    d  .text	00000000 .text
0101f528 l    d  .rodata	00000000 .rodata
01028b50 l    d  .rwdata	00000000 .rwdata
0102a770 l    d  .bss	00000000 .bss
00000020 l    d  .generic_tristate_controller	00000000 .generic_tristate_controller
01036960 l    d  .sdram	00000000 .sdram
00000000 l    d  .comment	00000000 .comment
00000000 l    d  .debug_aranges	00000000 .debug_aranges
00000000 l    d  .debug_info	00000000 .debug_info
00000000 l    d  .debug_abbrev	00000000 .debug_abbrev
00000000 l    d  .debug_line	00000000 .debug_line
00000000 l    d  .debug_frame	00000000 .debug_frame
00000000 l    d  .debug_str	00000000 .debug_str
00000000 l    d  .debug_loc	00000000 .debug_loc
00000000 l    d  .debug_alt_sim_info	00000000 .debug_alt_sim_info
00000000 l    d  .debug_ranges	00000000 .debug_ranges
00000000 l    df *ABS*	00000000 ../helloagain_bsp//obj/HAL/src/crt0.o
01000278 l       .text	00000000 alt_after_alt_main
00000000 l    df *ABS*	00000000 alt_irq_handler.c
00000000 l    df *ABS*	00000000 alt_instruction_exception_entry.c
00000000 l    df *ABS*	00000000 ctrl.c
0101f528 l     O .rodata	00000600 ASCII8_16
0101fb28 l     O .rodata	00001200 ASCII12_24
00000000 l    df *ABS*	00000000 draw.c
01020d69 l     O .rodata	00000600 ASCII8_16
01021369 l     O .rodata	00001200 ASCII12_24
00000000 l    df *ABS*	00000000 hello_world.c
0102256c l     O .rodata	00000600 ASCII8_16
01022b6c l     O .rodata	00001200 ASCII12_24
00000000 l    df *ABS*	00000000 i2c.c
00000000 l    df *ABS*	00000000 key.c
01023e9c l     O .rodata	00000600 ASCII8_16
0102449c l     O .rodata	00001200 ASCII12_24
00000000 l    df *ABS*	00000000 lcd.c
010256bc l     O .rodata	00000600 ASCII8_16
01025cbc l     O .rodata	00001200 ASCII12_24
00000000 l    df *ABS*	00000000 touch.c
01026f58 l     O .rodata	00000600 ASCII8_16
01027558 l     O .rodata	00001200 ASCII12_24
00000000 l    df *ABS*	00000000 w_pow.c
00000000 l    df *ABS*	00000000 e_pow.c
00000000 l    df *ABS*	00000000 e_sqrt.c
00000000 l    df *ABS*	00000000 s_fabs.c
00000000 l    df *ABS*	00000000 s_finite.c
00000000 l    df *ABS*	00000000 s_fpclassify.c
00000000 l    df *ABS*	00000000 s_lib_ver.c
00000000 l    df *ABS*	00000000 s_matherr.c
00000000 l    df *ABS*	00000000 s_nan.c
00000000 l    df *ABS*	00000000 s_rint.c
010287e4 l     O .rodata	00000010 TWO52
00000000 l    df *ABS*	00000000 s_scalbn.c
00000000 l    df *ABS*	00000000 s_copysign.c
00000000 l    df *ABS*	00000000 libgcc2.c
00000000 l    df *ABS*	00000000 addsf3.c
00000000 l    df *ABS*	00000000 divsf3.c
00000000 l    df *ABS*	00000000 eqsf2.c
00000000 l    df *ABS*	00000000 gesf2.c
00000000 l    df *ABS*	00000000 lesf2.c
00000000 l    df *ABS*	00000000 mulsf3.c
00000000 l    df *ABS*	00000000 subsf3.c
00000000 l    df *ABS*	00000000 fixsfsi.c
00000000 l    df *ABS*	00000000 adddf3.c
00000000 l    df *ABS*	00000000 divdf3.c
00000000 l    df *ABS*	00000000 eqdf2.c
00000000 l    df *ABS*	00000000 gedf2.c
00000000 l    df *ABS*	00000000 ledf2.c
00000000 l    df *ABS*	00000000 muldf3.c
00000000 l    df *ABS*	00000000 subdf3.c
00000000 l    df *ABS*	00000000 fixdfsi.c
00000000 l    df *ABS*	00000000 floatsidf.c
00000000 l    df *ABS*	00000000 floatunsidf.c
00000000 l    df *ABS*	00000000 extendsfdf2.c
00000000 l    df *ABS*	00000000 truncdfsf2.c
00000000 l    df *ABS*	00000000 libgcc2.c
00000000 l    df *ABS*	00000000 lib2-divmod.c
00000000 l    df *ABS*	00000000 libgcc2.c
00000000 l    df *ABS*	00000000 errno.c
00000000 l    df *ABS*	00000000 impure.c
01028b70 l     O .rwdata	00000424 impure_data
00000000 l    df *ABS*	00000000 printf.c
00000000 l    df *ABS*	00000000 puts.c
00000000 l    df *ABS*	00000000 sprintf.c
00000000 l    df *ABS*	00000000 strlen.c
00000000 l    df *ABS*	00000000 vfprintf.c
0102893e l     O .rodata	00000010 zeroes.4389
0102894e l     O .rodata	00000010 blanks.4388
00000000 l    df *ABS*	00000000 vfprintf.c
0102895e l     O .rodata	00000010 zeroes.4404
0101155c l     F .text	000000bc __sbprintf
0102896e l     O .rodata	00000010 blanks.4403
00000000 l    df *ABS*	00000000 wsetup.c
00000000 l    df *ABS*	00000000 dtoa.c
0101176c l     F .text	00000200 quorem
00000000 l    df *ABS*	00000000 fflush.c
00000000 l    df *ABS*	00000000 findfp.c
0101329c l     F .text	00000008 __fp_unlock
010132b0 l     F .text	0000019c __sinit.part.1
0101344c l     F .text	00000008 __fp_lock
00000000 l    df *ABS*	00000000 mallocr.c
00000000 l    df *ABS*	00000000 fvwrite.c
00000000 l    df *ABS*	00000000 fwalk.c
00000000 l    df *ABS*	00000000 locale.c
01028fb4 l     O .rwdata	00000020 lc_ctype_charset
01028f94 l     O .rwdata	00000020 lc_message_charset
01028fd4 l     O .rwdata	00000038 lconv
00000000 l    df *ABS*	00000000 makebuf.c
00000000 l    df *ABS*	00000000 mallocr.c
00000000 l    df *ABS*	00000000 memchr.c
00000000 l    df *ABS*	00000000 memcpy.c
00000000 l    df *ABS*	00000000 memmove.c
00000000 l    df *ABS*	00000000 memset.c
00000000 l    df *ABS*	00000000 mprec.c
0102899c l     O .rodata	0000000c p05.2768
00000000 l    df *ABS*	00000000 mallocr.c
00000000 l    df *ABS*	00000000 sbrkr.c
00000000 l    df *ABS*	00000000 stdio.c
00000000 l    df *ABS*	00000000 strcmp.c
00000000 l    df *ABS*	00000000 vfprintf.c
01028ad0 l     O .rodata	00000010 blanks.4332
01028ac0 l     O .rodata	00000010 zeroes.4333
00000000 l    df *ABS*	00000000 vfprintf.c
01017be0 l     F .text	000000fc __sprint_r.part.0
01028af0 l     O .rodata	00000010 blanks.4348
01028ae0 l     O .rodata	00000010 zeroes.4349
0101916c l     F .text	000000bc __sbprintf
00000000 l    df *ABS*	00000000 writer.c
00000000 l    df *ABS*	00000000 closer.c
00000000 l    df *ABS*	00000000 mallocr.c
00000000 l    df *ABS*	00000000 fclose.c
00000000 l    df *ABS*	00000000 fputwc.c
00000000 l    df *ABS*	00000000 fstatr.c
00000000 l    df *ABS*	00000000 int_errno.c
00000000 l    df *ABS*	00000000 isattyr.c
00000000 l    df *ABS*	00000000 lseekr.c
00000000 l    df *ABS*	00000000 readr.c
00000000 l    df *ABS*	00000000 wbuf.c
00000000 l    df *ABS*	00000000 wcrtomb.c
00000000 l    df *ABS*	00000000 wctomb_r.c
00000000 l    df *ABS*	00000000 libgcc2.c
00000000 l    df *ABS*	00000000 libgcc2.c
00000000 l    df *ABS*	00000000 alt_close.c
0101a60c l     F .text	0000003c alt_get_errno
00000000 l    df *ABS*	00000000 alt_dev.c
0101a718 l     F .text	0000002c alt_dev_null_write
00000000 l    df *ABS*	00000000 alt_errno.c
00000000 l    df *ABS*	00000000 alt_fstat.c
0101a744 l     F .text	0000003c alt_get_errno
00000000 l    df *ABS*	00000000 alt_irq_register.c
00000000 l    df *ABS*	00000000 alt_irq_vars.c
00000000 l    df *ABS*	00000000 alt_isatty.c
0101a9b0 l     F .text	0000003c alt_get_errno
00000000 l    df *ABS*	00000000 alt_lseek.c
0101aa90 l     F .text	0000003c alt_get_errno
00000000 l    df *ABS*	00000000 alt_main.c
00000000 l    df *ABS*	00000000 alt_malloc_lock.c
00000000 l    df *ABS*	00000000 alt_read.c
0101ac64 l     F .text	0000003c alt_get_errno
00000000 l    df *ABS*	00000000 alt_release_fd.c
00000000 l    df *ABS*	00000000 alt_sbrk.c
0102a75c l     O .rwdata	00000004 heap_end
00000000 l    df *ABS*	00000000 alt_usleep.c
00000000 l    df *ABS*	00000000 alt_write.c
0101aee0 l     F .text	0000003c alt_get_errno
00000000 l    df *ABS*	00000000 alt_sys_init.c
0101b014 l     F .text	00000034 alt_dev_reg
010295bc l     O .rwdata	000000dc generic_tristate_controller
01029698 l     O .rwdata	00001060 jtag_uart
00000000 l    df *ABS*	00000000 altera_avalon_cfi_flash.c
0101b0f0 l     F .text	00000034 alt_flash_device_register
00000000 l    df *ABS*	00000000 altera_avalon_cfi_flash_table.c
0101bf40 l     F .text	00000080 alt_read_16bit_query_entry
00000000 l    df *ABS*	00000000 altera_avalon_jtag_uart_fd.c
00000000 l    df *ABS*	00000000 altera_avalon_jtag_uart_init.c
0101cff4 l     F .text	0000020c altera_avalon_jtag_uart_irq
0101d200 l     F .text	000000a0 altera_avalon_jtag_uart_timeout
00000000 l    df *ABS*	00000000 altera_avalon_jtag_uart_ioctl.c
00000000 l    df *ABS*	00000000 altera_avalon_jtag_uart_read.c
00000000 l    df *ABS*	00000000 altera_avalon_jtag_uart_write.c
00000000 l    df *ABS*	00000000 altera_avalon_timer_sc.c
0101d838 l     F .text	00000078 alt_avalon_timer_sc_irq
00000000 l    df *ABS*	00000000 alt_alarm_start.c
00000000 l    df *ABS*	00000000 alt_busy_sleep.c
00000000 l    df *ABS*	00000000 alt_dcache_flush.c
00000000 l    df *ABS*	00000000 alt_dev_llist_insert.c
0101dba8 l     F .text	0000003c alt_get_errno
00000000 l    df *ABS*	00000000 alt_do_ctors.c
00000000 l    df *ABS*	00000000 alt_do_dtors.c
00000000 l    df *ABS*	00000000 alt_flash_dev.c
00000000 l    df *ABS*	00000000 alt_iic.c
00000000 l    df *ABS*	00000000 alt_iic_isr_register.c
00000000 l    df *ABS*	00000000 alt_io_redirect.c
0101e0a4 l     F .text	000000c4 alt_open_fd
00000000 l    df *ABS*	00000000 alt_open.c
0101e1e4 l     F .text	0000003c alt_get_errno
0101e220 l     F .text	000000c4 alt_file_locked
00000000 l    df *ABS*	00000000 alt_tick.c
00000000 l    df *ABS*	00000000 altera_nios2_gen2_irq.c
00000000 l    df *ABS*	00000000 altera_avalon_cfi_flash_amd.c
0101e994 l     F .text	000000cc alt_write_word_amd
0101e878 l     F .text	0000011c alt_wait_for_command_to_complete_amd
00000000 l    df *ABS*	00000000 altera_avalon_cfi_flash_intel.c
0101ec6c l     F .text	0000017c alt_unlock_block_intel
0101ede8 l     F .text	000000d4 alt_write_word_intel
00000000 l    df *ABS*	00000000 alt_find_dev.c
00000000 l    df *ABS*	00000000 alt_find_file.c
00000000 l    df *ABS*	00000000 alt_get_fd.c
00000000 l    df *ABS*	00000000 atexit.c
00000000 l    df *ABS*	00000000 exit.c
00000000 l    df *ABS*	00000000 memcmp.c
00000000 l    df *ABS*	00000000 __atexit.c
00000000 l    df *ABS*	00000000 __call_atexit.c
00000000 l    df *ABS*	00000000 alt_exit.c
0102a814 g     O .bss	00000004 alt_instruction_exception_handler
01015e8c g     F .text	00000074 _mprec_log10
01015f78 g     F .text	0000008c __any_on
01019708 g     F .text	00000054 _isatty_r
010289a8 g     O .rodata	00000028 __mprec_tinytens
0101aba0 g     F .text	0000007c alt_main
0100cf40 g     F .text	000000c0 _puts_r
0101ba04 g     F .text	00000040 alt_read_query_entry_32bit
01036860 g     O .bss	00000100 alt_irq
010024a4 g     F .text	00000050 i2cInit
01008ae0 g     F .text	00000014 fabs
0101975c g     F .text	00000060 _lseek_r
01003238 g     F .text	00000054 lcdGetPoint
01003e4c g     F .text	00000404 lcdDrawGrid
0101b1b4 g     F .text	000002a8 alt_flash_cfi_write
00000000 g       *ABS*	00000000 __alt_mem_generic_tristate_controller
0100b584 g     F .text	00000088 .hidden __eqdf2
01036960 g       *ABS*	00000000 __alt_heap_start
010051e4 g     F .text	000001b4 lcddrawsqur2
0102a7d4 g     O .bss	00000008 num_output
0100cf04 g     F .text	0000003c printf
01019974 g     F .text	0000009c _wcrtomb_r
0100062c g     F .text	000000e8 change
0102a714 g     O .rwdata	00000004 y_mod
01016694 g     F .text	0000005c __sseek
010135ec g     F .text	00000010 __sinit
01004430 g     F .text	00000098 lcdDispDecSmall
0101981c g     F .text	00000140 __swbuf_r
010140b4 g     F .text	0000007c _setlocale_r
01004250 g     F .text	000000f0 lcdDispStringSmall
01013454 g     F .text	00000068 __sfmoreglue
0101ac40 g     F .text	00000024 __malloc_unlock
0102a772 g     O .bss	00000002 rdmax
01001498 g     F .text	00000e58 Paint_w
01004a28 g     F .text	00000604 lcdDispNumtable
01009464 g     F .text	00000440 .hidden __divsf3
0102e818 g     O .bss	00004000 sig2
01014d84 g     F .text	0000015c memmove
010135d4 g     F .text	00000018 _cleanup
01015008 g     F .text	000000a8 _Balloc
0100a380 g     F .text	00000070 .hidden __fixsfsi
01000714 g     F .text	00000048 figure
0100b60c g     F .text	000000dc .hidden __gtdf2
010029f0 g     F .text	00000090 i2cWriteReg
0101e5dc g     F .text	00000024 altera_nios2_gen2_irq_init
0100cec4 g     F .text	00000010 __errno
0101bb9c g     F .text	00000050 alt_write_flash_command_32bit_device_16bit_mode
00000000 g     F .entry	00000000 __reset
010196ac g     F .text	0000005c _fstat_r
0101b6a8 g     F .text	000002e0 alt_flash_program_block
0102a7f8 g     O .bss	00000004 errno
01016610 g     F .text	00000008 __seofread
010070dc g     F .text	000000f0 touchGetData
010169a4 g     F .text	0000123c ___svfiprintf_internal_r
0102a804 g     O .bss	00000004 alt_argv
010326f8 g       *ABS*	00000000 _gp
0101aeb0 g     F .text	00000030 usleep
01009e9c g     F .text	000004e4 .hidden __subsf3
01002660 g     F .text	00000088 i2cAck
010044c8 g     F .text	00000098 lcdDispDecBig
010030d4 g     F .text	00000028 lcdReadData
0102943c g     O .rwdata	00000180 alt_fd_list
0102a780 g     O .bss	00000004 storage_done
01005894 g     F .text	00001848 button_table
0102a708 g     O .rwdata	00000004 Num_X
01003af0 g     F .text	00000258 lcdDrawPic
0101eebc g     F .text	00000090 alt_find_dev
01014c3c g     F .text	00000148 memcpy
0100328c g     F .text	00000140 lcdRectClear
010031d4 g     F .text	00000064 lcdDrawPoint
010132a4 g     F .text	0000000c _cleanup_r
0100c870 g     F .text	000000dc .hidden __floatsidf
0101e168 g     F .text	0000007c alt_io_redirect
0100b6e8 g     F .text	000000f4 .hidden __ltdf2
0101f528 g       *ABS*	00000000 __DTOR_END__
0100d000 g     F .text	00000014 puts
0101f0f8 g     F .text	0000009c alt_exception_cause_generated_bad_addr
01000364 g     F .text	000000c4 timerIsr
01002524 g     F .text	000000b4 i2cStart
01008b10 g     F .text	00000074 __fpclassifyd
01015de8 g     F .text	000000a4 __ratio
01019150 g     F .text	0000001c __vfiprintf_internal
01002d3c g     F .text	000000fc keyIsr
0101d3f8 g     F .text	0000021c altera_avalon_jtag_uart_read
0100ced4 g     F .text	00000030 _printf_r
0100ce08 g     F .text	00000064 .hidden __udivsi3
0101a9ec g     F .text	000000a4 isatty
01005398 g     F .text	000000dc lcdDrawRect
010289f8 g     O .rodata	000000c8 __mprec_tens
01014130 g     F .text	0000000c __locale_charset
010099d8 g     F .text	000000c8 .hidden __lesf2
0102a7f4 g     O .bss	00000004 __malloc_top_pad
0102a7c8 g     O .bss	00000004 flag
0102a730 g     O .rwdata	00000004 __mb_cur_max
01014160 g     F .text	0000000c _localeconv_r
010030fc g     F .text	000000d8 lcdSetCursor
01015414 g     F .text	0000003c __i2b
01013a70 g     F .text	000004bc __sfvwrite_r
0102a784 g     O .bss	00000002 rdac_zero
01016568 g     F .text	00000054 _sbrk_r
0101ea60 g     F .text	00000080 alt_program_intel
010197bc g     F .text	00000060 _read_r
0101db80 g     F .text	00000028 alt_dcache_flush
0102a750 g     O .rwdata	00000004 alt_max_fd
0101b988 g     F .text	0000003c alt_read_query_entry_8bit
010193a0 g     F .text	000000f0 _fclose_r
010007b4 g     F .text	00000034 figure_init
0101eae0 g     F .text	0000018c alt_erase_block_intel
0101326c g     F .text	00000030 fflush
01002a80 g     F .text	000000cc i2cWriteMulti
0102a7f0 g     O .bss	00000004 __malloc_max_sbrked_mem
0102a788 g     O .bss	00000004 KW_word
0101a830 g     F .text	00000180 alt_irq_register
01003430 g     F .text	00000238 lcdDrawVerLine
0100c9f4 g     F .text	00000110 .hidden __extendsfdf2
0102a7cc g     O .bss	00000004 bit_pointer
0100a3f0 g     F .text	000008ac .hidden __adddf3
010098a4 g     F .text	00000078 .hidden __nesf2
01000bd4 g     F .text	000000f8 getVpp
01015b90 g     F .text	0000010c __b2d
0101a0d4 g     F .text	00000538 .hidden __umoddi3
0101aacc g     F .text	000000d4 lseek
01002bf0 g     F .text	000000f4 i2cReadMulti
0102a724 g     O .rwdata	00000004 __fdlib_version
010048f0 g     F .text	00000138 DisplayPic
0102a728 g     O .rwdata	00000004 _global_impure_ptr
01016004 g     F .text	00000564 _realloc_r
01036960 g       *ABS*	00000000 __bss_end
0101dfb4 g     F .text	000000f0 alt_iic_isr_register
0101e4d4 g     F .text	00000108 alt_tick
01019b5c g     F .text	00000578 .hidden __udivdi3
0102a78c g     O .bss	00000008 vac_zero
01019608 g     F .text	00000024 _fputwc_r
0102a6f8 g     O .rwdata	00000004 KW_init
010289d0 g     O .rodata	00000028 __mprec_bigtens
010151f8 g     F .text	00000104 __s2b
0100c94c g     F .text	000000a8 .hidden __floatunsidf
010024f4 g     F .text	00000030 i2cDelay
010158d0 g     F .text	00000060 __mcmp
010025d8 g     F .text	00000088 i2cStop
010071cc g     F .text	000000f4 touchGetRaw
0101360c g     F .text	00000018 __fp_lock_all
0101df68 g     F .text	0000004c alt_ic_irq_enabled
010009e8 g     F .text	000001ec Amp
0101e438 g     F .text	0000009c alt_alarm_stop
0102a700 g     O .rwdata	00000004 switch_mod
01004560 g     F .text	000000ac lcdDispFloatSmall
010026e8 g     F .text	00000088 i2cNoAck
0102a7fc g     O .bss	00000004 alt_irq_active
010022f0 g     F .text	000001b4 setSwitch
010000fc g     F .exceptions	000000d4 alt_irq_handler
01029414 g     O .rwdata	00000028 alt_dev_null
01008b98 g     F .text	000001ec rint
010012c4 g     F .text	000001d4 fifo_sto
0101bea4 g     F .text	0000009c alt_set_flash_algorithm_func
01028b50 g     O .rwdata	00000010 top
010152fc g     F .text	00000068 __hi0bits
01028b60 g     O .rwdata	00000010 local
0100c7f0 g     F .text	00000080 .hidden __fixdfsi
0101ba44 g     F .text	00000044 alt_write_flash_command_8bit_device_8bit_mode
010054f4 g     F .text	00000058 touchIrqInit
0102a748 g     O .rwdata	00000008 alt_dev_list
0101af1c g     F .text	000000f8 write
01000428 g     F .text	00000180 partition
0100991c g     F .text	000000bc .hidden __gtsf2
0101a780 g     F .text	000000b0 fstat
0100075c g     F .text	00000058 clear
0100b6e8 g     F .text	000000f4 .hidden __ledf2
0101ccf8 g     F .text	000000d8 alt_check_primary_table
01015648 g     F .text	00000140 __pow5mult
01017cf4 g     F .text	0000145c ___vfiprintf_internal_r
0102a7e8 g     O .bss	00000004 __nlocale_changed
0100ce6c g     F .text	00000058 .hidden __umodsi3
0101b4e8 g     F .text	00000064 alt_flash_cfi_read
0101bc3c g     F .text	00000038 alt_write_native_8bit
01036960 g       *ABS*	00000000 end
0101ba88 g     F .text	00000078 alt_write_flash_command_16bit_device_8bit_mode
0102a718 g     O .rwdata	00000004 mode
0101bfc0 g     F .text	000005c8 alt_read_cfi_table
0101cf34 g     F .text	000000c0 altera_avalon_jtag_uart_init
010001d0 g     F .exceptions	00000074 alt_instruction_exception_entry
0100389c g     F .text	00000254 lcdDrawLine
0102a794 g     O .bss	00000004 clk_rd
0101f528 g       *ABS*	00000000 __CTOR_LIST__
01800000 g       *ABS*	00000000 __alt_stack_pointer
0101d8b0 g     F .text	0000007c alt_avalon_timer_sc_init
0100ccac g     F .text	00000064 .hidden __clzsi2
0101d614 g     F .text	00000224 altera_avalon_jtag_uart_write
0101b124 g     F .text	00000090 alt_flash_cfi_init
010135fc g     F .text	00000004 __sfp_lock_acquire
01014b58 g     F .text	000000e4 memchr
0100f348 g     F .text	000021f8 ___vfprintf_internal_r
0100d014 g     F .text	00000058 _sprintf_r
01013760 g     F .text	00000310 _free_r
0101413c g     F .text	00000010 __locale_mb_cur_max
01002e38 g     F .text	0000022c lcdInit
0101f374 g     F .text	00000180 __call_exitprocs
0102a7e4 g     O .bss	00000004 __mlocale_changed
01002914 g     F .text	000000dc i2cReadByte
010005a8 g     F .text	00000084 quicksort
0102a734 g     O .rwdata	00000004 __malloc_sbrk_base
01000244 g     F .text	00000038 _start
0102a80c g     O .bss	00000004 _alt_tick_rate
0102a798 g     O .bss	00000004 Times
01015788 g     F .text	00000148 __lshift
0102a810 g     O .bss	00000004 _alt_nticks
0101aca0 g     F .text	000000fc read
0101b080 g     F .text	00000070 alt_sys_init
010167d4 g     F .text	000001d0 __ssprint_r
0101f25c g     F .text	00000118 __register_exitproc
0101b9c4 g     F .text	00000040 alt_read_query_entry_16bit
010008b4 g     F .text	000000f4 init_dis
01015450 g     F .text	000001f8 __multiply
010077b4 g     F .text	000010a4 __ieee754_pow
0101d2a0 g     F .text	00000068 altera_avalon_jtag_uart_close
010072f0 g     F .text	000004c4 pow
01000e7c g     F .text	00000274 getSampclk
01036838 g     O .bss	00000028 __malloc_current_mallinfo
010098a4 g     F .text	00000078 .hidden __eqsf2
0101bce0 g     F .text	000001c4 alt_set_flash_width_func
01015c9c g     F .text	0000014c __d2b
010002fc g     F .text	00000020 ctrlInit
0102a79c g     O .bss	00000008 fre_meas
01002ce4 g     F .text	00000058 keyInit
01032818 g     O .bss	00004000 sig1_real
0101cdd0 g     F .text	00000060 altera_avalon_jtag_uart_read_fd
0100031c g     F .text	00000048 timerInit
0101f054 g     F .text	000000a4 alt_get_fd
0101da58 g     F .text	00000128 alt_busy_sleep
01019288 g     F .text	00000054 _close_r
0101e668 g     F .text	00000210 alt_erase_block_amd
0102a704 g     O .rwdata	00000001 LINEMODE
0101f1e0 g     F .text	0000007c memcmp
0101ce90 g     F .text	00000050 altera_avalon_jtag_uart_close_fd
01036960 g       *ABS*	00000000 __alt_stack_base
0101cee0 g     F .text	00000054 altera_avalon_jtag_uart_ioctl_fd
01011618 g     F .text	00000154 __swsetup_r
0101c588 g     F .text	00000770 alt_read_cfi_width
01000884 g     F .text	00000030 init
0100ac9c g     F .text	000008e8 .hidden __divdf3
010134bc g     F .text	00000118 __sfp
01015f00 g     F .text	00000078 __copybits
0100309c g     F .text	00000038 lcdWriteData
0102900c g     O .rwdata	00000408 __malloc_av_
01013608 g     F .text	00000004 __sinit_lock_release
0100b7dc g     F .text	00000718 .hidden __muldf3
010165bc g     F .text	00000054 __sread
0101ef4c g     F .text	00000108 alt_find_file
0101dbe4 g     F .text	000000a4 alt_dev_llist_insert
0101ac1c g     F .text	00000024 __malloc_lock
0101ae00 g     F .text	000000b0 sbrk
0100d170 g     F .text	000021d8 ___svfprintf_internal_r
0102a7dc g     O .bss	00000001 TouchValidFlag
01013210 g     F .text	0000005c _fflush_r
010192dc g     F .text	000000c4 _calloc_r
0102a760 g     O .rwdata	00000008 alt_flash_dev_list
0101bb50 g     F .text	0000004c alt_write_flash_command_16bit_device_16bit_mode
0102a770 g       *ABS*	00000000 __bss_start
01002b4c g     F .text	000000a4 i2cReadReg
01014ee0 g     F .text	00000128 memset
010007e8 g     F .text	0000009c main
0102a808 g     O .bss	00000004 alt_envp
0102a7ec g     O .bss	00000004 __malloc_max_total_mem
0101ce30 g     F .text	00000060 altera_avalon_jtag_uart_write_fd
0101995c g     F .text	00000018 __swbuf
0100460c g     F .text	000000ec lcdDispFloatSmall_4
010099d8 g     F .text	000000c8 .hidden __ltsf2
010166f0 g     F .text	00000008 __sclose
01008b84 g     F .text	00000008 matherr
01800000 g       *ABS*	00000000 __alt_heap_limit
01019490 g     F .text	00000014 fclose
0100cb04 g     F .text	000001a8 .hidden __truncdfsf2
0101196c g     F .text	00001688 _dtoa_r
0101434c g     F .text	0000080c _malloc_r
01019ad0 g     F .text	00000030 __ascii_wctomb
0102a754 g     O .rwdata	00000004 alt_errno
0102a70c g     O .rwdata	00000004 Num_Y
0101bbec g     F .text	00000050 alt_write_flash_command_32bit_device_32bit_mode
0102a778 g     O .bss	00000004 signal_num
0102a71d g     O .rwdata	00000005 tpid
01002770 g     F .text	000000c4 i2cWaitAck
01013f2c g     F .text	000000c4 _fwalk
0102a710 g     O .rwdata	00000004 x_mod
0101b54c g     F .text	0000015c alt_write_value_to_flash
0101bc74 g     F .text	00000038 alt_write_native_16bit
0100cd10 g     F .text	00000084 .hidden __divsi3
0101363c g     F .text	00000124 _malloc_trim_r
0102a71c g     O .rwdata	00000001 TouchValue
0101f528 g       *ABS*	00000000 __CTOR_END__
01002834 g     F .text	000000e0 i2cSendByte
01009aa0 g     F .text	000003fc .hidden __mulsf3
01008af4 g     F .text	0000001c finite
010166f8 g     F .text	000000dc strcmp
0101f528 g       *ABS*	00000000 __DTOR_LIST__
01008f20 g     F .text	0000001c copysign
0100b584 g     F .text	00000088 .hidden __nedf2
0102a818 g     O .bss	00004000 sig1
0101b048 g     F .text	00000038 alt_irq_init
0102a7a4 g     O .bss	00000008 vmin
0101ad9c g     F .text	00000064 alt_release_fd
0100d06c g     F .text	0000006c sprintf
010287f4 g     O .rodata	00000100 .hidden __clz_tab
0102a7e0 g     O .bss	00000004 _PathLocale
0102a7ac g     O .bss	00000008 vpp
0101f194 g     F .text	00000014 atexit
0100991c g     F .text	000000bc .hidden __gesf2
01019228 g     F .text	00000060 _write_r
0101416c g     F .text	00000018 setlocale
01005474 g     F .text	00000080 touchInit
010046f8 g     F .text	000001f8 lcdDispFloatBig
0102a72c g     O .rwdata	00000004 _impure_ptr
0102a800 g     O .bss	00000004 alt_argc
01012ff4 g     F .text	0000021c __sflush_r
01008d84 g     F .text	0000019c scalbn
0102a7c4 g     O .bss	00000001 HLPEN
0101dce8 g     F .text	00000060 _do_dtors
01014158 g     F .text	00000008 __locale_cjk_lang
0100502c g     F .text	000001b8 lcddrawsqur
010033cc g     F .text	00000064 lcdSetLine
01000020 g       .exceptions	00000000 alt_irq_entry
0102a705 g     O .rwdata	00000001 CYCLE
010072c0 g     F .text	00000030 touchGetGesture
01015b2c g     F .text	00000064 __ulp
01013624 g     F .text	00000018 __fp_unlock_all
01005748 g     F .text	0000014c Change_value
0102a740 g     O .rwdata	00000008 alt_fs_list
0101bb00 g     F .text	00000050 alt_write_flash_command_32bit_device_8bit_mode
01008b8c g     F .text	0000000c nan
01014184 g     F .text	0000000c localeconv
01008858 g     F .text	00000288 __ieee754_sqrt
0101de04 g     F .text	00000050 alt_ic_isr_register
0102a770 g       *ABS*	00000000 _edata
01036960 g       *ABS*	00000000 _end
0101dd48 g     F .text	00000068 alt_flash_open_dev
0100027c g     F .text	00000080 deviceInit
010194a4 g     F .text	00000164 __fputwc
0102a774 g     O .bss	00000002 rdmin
0101d308 g     F .text	000000f0 altera_avalon_jtag_uart_ioctl
0102a706 g     O .rwdata	00000001 DUTY
0101dedc g     F .text	0000008c alt_ic_irq_disable
01016618 g     F .text	0000007c __swrite
0102a738 g     O .rwdata	00000004 __malloc_trim_threshold
0101414c g     F .text	0000000c __locale_msgcharset
0101f1a8 g     F .text	00000038 exit
01013ff0 g     F .text	000000c4 _fwalk_reent
01015930 g     F .text	000001fc __mdiff
0101ddb0 g     F .text	00000054 alt_flash_close_dev
01003d48 g     F .text	00000104 lcdDrawRectan
0100cd94 g     F .text	00000074 .hidden __modsi3
01036818 g     O .bss	00000020 bit_array
01800000 g       *ABS*	00000000 __alt_data_end
01000020 g     F .exceptions	00000000 alt_exception
01013600 g     F .text	00000004 __sfp_lock_release
01000000 g       *ABS*	00000000 __alt_mem_sdram
010056f0 g     F .text	00000058 touchIsr
0102a7b4 g     O .bss	00000008 vmax
01008f3c g     F .text	00000060 .hidden __fixunssfsi
0101f4f4 g     F .text	00000034 _exit
0101d92c g     F .text	0000012c alt_alarm_start
01014190 g     F .text	000001bc __smakebuf_r
0101bcac g     F .text	00000034 alt_write_native_32bit
0100d0d8 g     F .text	00000098 strlen
01004340 g     F .text	000000f0 lcdDispStringBig
0101e2e4 g     F .text	00000154 open
0100b60c g     F .text	000000dc .hidden __gedf2
0101b45c g     F .text	0000008c alt_flash_cfi_get_info
01003064 g     F .text	00000038 lcdWriteCommand
0102a73c g     O .rwdata	00000004 __wctomb
0102a770 g     O .bss	00000002 rdv
01017cdc g     F .text	00000018 __sprint_r
0102a6fc g     O .rwdata	00000004 Times_init
0102a758 g     O .rwdata	00000004 alt_priority_mask
0102a7d0 g     O .bss	00000004 Range_w
0101de54 g     F .text	00000088 alt_ic_irq_enable
01011540 g     F .text	0000001c __vfprintf_internal
0102a77c g     O .bss	00000004 choosed
01019b00 g     F .text	0000005c _wctomb_r
0100bef4 g     F .text	000008fc .hidden __subdf3
0102a7bc g     O .bss	00000008 Mult
01015364 g     F .text	000000b0 __lo0bits
01000ccc g     F .text	000001b0 getFre
0102a768 g     O .rwdata	00000008 alt_alarm_list
0101dc88 g     F .text	00000060 _do_ctors
010009a8 g     F .text	00000040 init_flag
01019a10 g     F .text	000000c0 wcrtomb
01003668 g     F .text	00000234 lcdDrawHorLine
0100554c g     F .text	000001a4 touchResponse
0101a648 g     F .text	000000d0 close
01008f9c g     F .text	000004c8 .hidden __addsf3
0101e600 g     F .text	00000068 alt_program_amd
010010f0 g     F .text	000001d4 disFre
0101962c g     F .text	00000080 fputwc
01013604 g     F .text	00000004 __sinit_lock_acquire
010150d8 g     F .text	00000120 __multadd
010150b0 g     F .text	00000028 _Bfree



Disassembly of section .exceptions:

01000020 <alt_exception>:

#else /* ALT_EXCEPTION_STACK disabled */
        /* 
         * Reserve space on normal stack for registers about to be pushed.
         */
        addi  sp, sp, -76
 1000020:	deffed04 	addi	sp,sp,-76
         * documentation for details).
         *
         * Leave a gap in the stack frame at 4(sp) for the muldiv handler to
         * store zero into.
         */
        stw   ra,  0(sp)
 1000024:	dfc00015 	stw	ra,0(sp)
        stw   r1,   8(sp)
 1000028:	d8400215 	stw	at,8(sp)
        stw   r2,  12(sp)
 100002c:	d8800315 	stw	r2,12(sp)
        stw   r3,  16(sp)
 1000030:	d8c00415 	stw	r3,16(sp)
        stw   r4,  20(sp)
 1000034:	d9000515 	stw	r4,20(sp)
        stw   r5,  24(sp)
 1000038:	d9400615 	stw	r5,24(sp)
        stw   r6,  28(sp)
 100003c:	d9800715 	stw	r6,28(sp)
        stw   r7,  32(sp)
 1000040:	d9c00815 	stw	r7,32(sp)
        rdctl r5, estatus   /* Read early to avoid usage stall */
 1000044:	000b307a 	rdctl	r5,estatus
        stw   r8,  36(sp)
 1000048:	da000915 	stw	r8,36(sp)
        stw   r9,  40(sp)
 100004c:	da400a15 	stw	r9,40(sp)
        stw   r10, 44(sp)
 1000050:	da800b15 	stw	r10,44(sp)
        stw   r11, 48(sp)
 1000054:	dac00c15 	stw	r11,48(sp)
        stw   r12, 52(sp)
 1000058:	db000d15 	stw	r12,52(sp)
        stw   r13, 56(sp)
 100005c:	db400e15 	stw	r13,56(sp)
        stw   r14, 60(sp)
 1000060:	db800f15 	stw	r14,60(sp)
        stw   r15, 64(sp)
 1000064:	dbc01015 	stw	r15,64(sp)
        /*
         * ea-4 contains the address of the instruction being executed
         * when the exception occured. For interrupt exceptions, we will
         * will be re-issue the isntruction. Store it in 72(sp)
         */
        stw   r5,  68(sp)  /* estatus */
 1000068:	d9401115 	stw	r5,68(sp)
        addi  r15, ea, -4  /* instruction that caused exception */
 100006c:	ebffff04 	addi	r15,ea,-4
        stw   r15,  72(sp)
 1000070:	dbc01215 	stw	r15,72(sp)
#else
        /*
         * Test to see if the exception was a software exception or caused 
         * by an external interrupt, and vector accordingly.
         */
        rdctl r4, ipending
 1000074:	0009313a 	rdctl	r4,ipending
        andi  r2, r5, 1
 1000078:	2880004c 	andi	r2,r5,1
        beq   r2, zero, .Lnot_irq
 100007c:	10000326 	beq	r2,zero,100008c <alt_exception+0x6c>
        beq   r4, zero, .Lnot_irq
 1000080:	20000226 	beq	r4,zero,100008c <alt_exception+0x6c>
        /*
         * Now that all necessary registers have been preserved, call 
         * alt_irq_handler() to process the interrupts.
         */

        call alt_irq_handler
 1000084:	10000fc0 	call	10000fc <alt_irq_handler>

        .section .exceptions.irqreturn, "xa"

        br    .Lexception_exit
 1000088:	00000706 	br	10000a8 <alt_exception+0x88>
         * upon completion, so we write ea (address of instruction *after*
         * the one where the exception occured) into 72(sp). The actual
         * instruction that caused the exception is written in r2, which these
         * handlers will utilize.
         */
        stw ea, 72(sp) /* EA is PC+4 so will skip over instruction causing exception */
 100008c:	df401215 	stw	ea,72(sp)
.Lunknown_16bit:
        addi.n r4, r4, 2 /* Need PC+2 to skip over instruction causing exception */
        stw r4, 72(sp)

#else /* CDX is not Enabled and all instructions are 32bits */
        ldw r2, -4(ea) /* Instruction value that caused exception */
 1000090:	e8bfff17 	ldw	r2,-4(ea)
         * debugger is present) or go into an infinite loop since the
         * handling behavior is undefined; in that case we will not return here.
         */

        /* Load exception-causing address as first argument (r4) */
        addi   r4, ea, -4
 1000094:	e93fff04 	addi	r4,ea,-4

        /* Call the instruction-exception entry */
        call   alt_instruction_exception_entry
 1000098:	10001d00 	call	10001d0 <alt_instruction_exception_entry>
         * instruction
         *
         * Return code was 0: Skip. The instruction after the exception is
         * already stored in 72(sp).
         */
        bne   r2, r0, .Lexception_exit
 100009c:	1000021e 	bne	r2,zero,10000a8 <alt_exception+0x88>

        /*
         * Otherwise, modify 72(sp) to re-issue the instruction that caused the
         * exception.
         */
        addi  r15, ea, -4  /* instruction that caused exception */
 10000a0:	ebffff04 	addi	r15,ea,-4
        stw   r15,  72(sp)
 10000a4:	dbc01215 	stw	r15,72(sp)
        /* 
         * Restore the saved registers, so that all general purpose registers 
         * have been restored to their state at the time the interrupt occured.
         */

        ldw   r5,  68(sp)
 10000a8:	d9401117 	ldw	r5,68(sp)
        ldw   ea,  72(sp)  /* This becomes the PC once eret is executed */
 10000ac:	df401217 	ldw	ea,72(sp)
        ldw   ra,   0(sp)
 10000b0:	dfc00017 	ldw	ra,0(sp)

        wrctl estatus, r5
 10000b4:	2801707a 	wrctl	estatus,r5

        ldw   r1,   8(sp)
 10000b8:	d8400217 	ldw	at,8(sp)
        ldw   r2,  12(sp)
 10000bc:	d8800317 	ldw	r2,12(sp)
        ldw   r3,  16(sp)
 10000c0:	d8c00417 	ldw	r3,16(sp)
        ldw   r4,  20(sp)
 10000c4:	d9000517 	ldw	r4,20(sp)
        ldw   r5,  24(sp)
 10000c8:	d9400617 	ldw	r5,24(sp)
        ldw   r6,  28(sp)
 10000cc:	d9800717 	ldw	r6,28(sp)
        ldw   r7,  32(sp)
 10000d0:	d9c00817 	ldw	r7,32(sp)

#if defined(ALT_EXCEPTION_STACK) && defined(ALT_STACK_CHECK)
        ldw   et, %gprel(alt_exception_old_stack_limit)(gp)
#endif

        ldw   r8,  36(sp)
 10000d4:	da000917 	ldw	r8,36(sp)
        ldw   r9,  40(sp)
 10000d8:	da400a17 	ldw	r9,40(sp)
        ldw   r10, 44(sp)
 10000dc:	da800b17 	ldw	r10,44(sp)
        ldw   r11, 48(sp)
 10000e0:	dac00c17 	ldw	r11,48(sp)
        ldw   r12, 52(sp)
 10000e4:	db000d17 	ldw	r12,52(sp)
        ldw   r13, 56(sp)
 10000e8:	db400e17 	ldw	r13,56(sp)
        ldw   r14, 60(sp)
 10000ec:	db800f17 	ldw	r14,60(sp)
        ldw   r15, 64(sp)
 10000f0:	dbc01017 	ldw	r15,64(sp)
        stw   et, %gprel(alt_stack_limit_value)(gp)
        stw   zero, %gprel(alt_exception_old_stack_limit)(gp)
#endif /* ALT_STACK_CHECK */
        ldw   sp,  76(sp)
#else /* ALT_EXCEPTION_STACK disabled */
        addi  sp, sp, 76
 10000f4:	dec01304 	addi	sp,sp,76

        /*
         * Return to the interrupted instruction.
         */

        eret
 10000f8:	ef80083a 	eret

010000fc <alt_irq_handler>:
 * instruction is present if the macro ALT_CI_INTERRUPT_VECTOR defined.
 */

void alt_irq_handler (void) __attribute__ ((section (".exceptions")));
void alt_irq_handler (void)
{
 10000fc:	defff904 	addi	sp,sp,-28
 1000100:	dfc00615 	stw	ra,24(sp)
 1000104:	df000515 	stw	fp,20(sp)
 1000108:	df000504 	addi	fp,sp,20
  
  /*
   * Notify the operating system that we are at interrupt level.
   */ 
  
  ALT_OS_INT_ENTER();
 100010c:	0001883a 	nop
#ifndef NIOS2_EIC_PRESENT
static ALT_INLINE alt_u32 ALT_ALWAYS_INLINE alt_irq_pending (void)
{
  alt_u32 active;

  NIOS2_READ_IPENDING (active);
 1000110:	0005313a 	rdctl	r2,ipending
 1000114:	e0bffe15 	stw	r2,-8(fp)

  return active;
 1000118:	e0bffe17 	ldw	r2,-8(fp)
   * Consider the case where the high priority interupt is asserted during
   * the interrupt entry sequence for a lower priority interrupt to see why
   * this is the case.
   */

  active = alt_irq_pending ();
 100011c:	e0bffb15 	stw	r2,-20(fp)

  do
  {
    i = 0;
 1000120:	e03ffd15 	stw	zero,-12(fp)
    mask = 1;
 1000124:	00800044 	movi	r2,1
 1000128:	e0bffc15 	stw	r2,-16(fp)
     * called to clear the interrupt condition.
     */

    do
    {
      if (active & mask)
 100012c:	e0fffb17 	ldw	r3,-20(fp)
 1000130:	e0bffc17 	ldw	r2,-16(fp)
 1000134:	1884703a 	and	r2,r3,r2
 1000138:	10001426 	beq	r2,zero,100018c <alt_irq_handler+0x90>
      { 
#ifdef ALT_ENHANCED_INTERRUPT_API_PRESENT
        alt_irq[i].handler(alt_irq[i].context); 
 100013c:	008040f4 	movhi	r2,259
 1000140:	109a1804 	addi	r2,r2,26720
 1000144:	e0fffd17 	ldw	r3,-12(fp)
 1000148:	180690fa 	slli	r3,r3,3
 100014c:	10c5883a 	add	r2,r2,r3
 1000150:	10c00017 	ldw	r3,0(r2)
 1000154:	008040f4 	movhi	r2,259
 1000158:	109a1804 	addi	r2,r2,26720
 100015c:	e13ffd17 	ldw	r4,-12(fp)
 1000160:	200890fa 	slli	r4,r4,3
 1000164:	1105883a 	add	r2,r2,r4
 1000168:	10800104 	addi	r2,r2,4
 100016c:	10800017 	ldw	r2,0(r2)
 1000170:	1009883a 	mov	r4,r2
 1000174:	183ee83a 	callr	r3
#else
        alt_irq[i].handler(alt_irq[i].context, i); 
#endif
        break;
 1000178:	0001883a 	nop
#ifndef NIOS2_EIC_PRESENT
static ALT_INLINE alt_u32 ALT_ALWAYS_INLINE alt_irq_pending (void)
{
  alt_u32 active;

  NIOS2_READ_IPENDING (active);
 100017c:	0005313a 	rdctl	r2,ipending
 1000180:	e0bfff15 	stw	r2,-4(fp)

  return active;
 1000184:	e0bfff17 	ldw	r2,-4(fp)
 1000188:	00000706 	br	10001a8 <alt_irq_handler+0xac>
      }
      mask <<= 1;
 100018c:	e0bffc17 	ldw	r2,-16(fp)
 1000190:	1085883a 	add	r2,r2,r2
 1000194:	e0bffc15 	stw	r2,-16(fp)
      i++;
 1000198:	e0bffd17 	ldw	r2,-12(fp)
 100019c:	10800044 	addi	r2,r2,1
 10001a0:	e0bffd15 	stw	r2,-12(fp)

    } while (1);
 10001a4:	003fe106 	br	100012c <__alt_data_end+0xff80012c>

    active = alt_irq_pending ();
 10001a8:	e0bffb15 	stw	r2,-20(fp)
    
  } while (active);
 10001ac:	e0bffb17 	ldw	r2,-20(fp)
 10001b0:	103fdb1e 	bne	r2,zero,1000120 <__alt_data_end+0xff800120>

  /*
   * Notify the operating system that interrupt processing is complete.
   */ 

  ALT_OS_INT_EXIT();
 10001b4:	0001883a 	nop
}
 10001b8:	0001883a 	nop
 10001bc:	e037883a 	mov	sp,fp
 10001c0:	dfc00117 	ldw	ra,4(sp)
 10001c4:	df000017 	ldw	fp,0(sp)
 10001c8:	dec00204 	addi	sp,sp,8
 10001cc:	f800283a 	ret

010001d0 <alt_instruction_exception_entry>:
 * that handler if it has been registered. Absent a handler, it will
 * break break or hang as discussed below.
 */
int 
alt_instruction_exception_entry (alt_u32 exception_pc)
{
 10001d0:	defffb04 	addi	sp,sp,-20
 10001d4:	dfc00415 	stw	ra,16(sp)
 10001d8:	df000315 	stw	fp,12(sp)
 10001dc:	df000304 	addi	fp,sp,12
 10001e0:	e13fff15 	stw	r4,-4(fp)
 * NIOS2_EXCEPTION_CAUSE_NOT_PRESENT. Your handling routine should
 * check the validity of the cause argument before proceeding.
 */
#ifdef NIOS2_HAS_EXTRA_EXCEPTION_INFO
  /* Get exception cause & "badaddr" */
  NIOS2_READ_EXCEPTION(cause);
 10001e4:	000531fa 	rdctl	r2,exception
 10001e8:	e0bffd15 	stw	r2,-12(fp)
  cause = ( (cause & NIOS2_EXCEPTION_REG_CAUSE_MASK) >>
 10001ec:	e0bffd17 	ldw	r2,-12(fp)
 10001f0:	10801f0c 	andi	r2,r2,124
 10001f4:	1004d0ba 	srli	r2,r2,2
 10001f8:	e0bffd15 	stw	r2,-12(fp)
              NIOS2_EXCEPTION_REG_CAUSE_OFST );

  NIOS2_READ_BADADDR(badaddr);
 10001fc:	0005333a 	rdctl	r2,badaddr
 1000200:	e0bffe15 	stw	r2,-8(fp)
#else
  cause = NIOS2_EXCEPTION_CAUSE_NOT_PRESENT;
  badaddr = 0;
#endif /* NIOS2_HAS_EXTRA_EXCEPTION_INFO */

  if(alt_instruction_exception_handler) {
 1000204:	d0a04717 	ldw	r2,-32484(gp)
 1000208:	10000726 	beq	r2,zero,1000228 <alt_instruction_exception_entry+0x58>
     * Call handler. Its return value indicates whether the exception-causing
     * instruction should be re-issued. The code that called us,
     * alt_eceptions_entry.S, will look at this value and adjust the ea
     * register as necessary
     */
    return alt_instruction_exception_handler(cause, exception_pc, badaddr);
 100020c:	d0a04717 	ldw	r2,-32484(gp)
 1000210:	e0fffd17 	ldw	r3,-12(fp)
 1000214:	e1bffe17 	ldw	r6,-8(fp)
 1000218:	e17fff17 	ldw	r5,-4(fp)
 100021c:	1809883a 	mov	r4,r3
 1000220:	103ee83a 	callr	r2
 1000224:	00000206 	br	1000230 <alt_instruction_exception_entry+0x60>
   *    (a peripheral which negates its interrupt output before its
   *    interrupt handler has been executed will cause spurious interrupts)
   */
  else {
#ifdef NIOS2_HAS_DEBUG_STUB
    NIOS2_BREAK();
 1000228:	003da03a 	break	0
      ;
#endif /* NIOS2_HAS_DEBUG_STUB */
  }

  /* We should not get here. Remove compiler warning. */
  return NIOS2_EXCEPTION_RETURN_REISSUE_INST;
 100022c:	0005883a 	mov	r2,zero
}
 1000230:	e037883a 	mov	sp,fp
 1000234:	dfc00117 	ldw	ra,4(sp)
 1000238:	df000017 	ldw	fp,0(sp)
 100023c:	dec00204 	addi	sp,sp,8
 1000240:	f800283a 	ret

Disassembly of section .text:

01000244 <_start>:

    /*
     * Now that the caches are initialized, set up the stack pointer and global pointer.
     * The values provided by the linker are assumed to be correctly aligned.
     */
    movhi sp, %hi(__alt_stack_pointer)
 1000244:	06c06034 	movhi	sp,384
    ori sp, sp, %lo(__alt_stack_pointer)
 1000248:	dec00014 	ori	sp,sp,0
    movhi gp, %hi(_gp)
 100024c:	068040f4 	movhi	gp,259
    ori gp, gp, %lo(_gp)
 1000250:	d689be14 	ori	gp,gp,9976
 */
#ifndef ALT_SIM_OPTIMIZE
    /* Log that the BSS is about to be cleared. */
    ALT_LOG_PUTS(alt_log_msg_bss)

    movhi r2, %hi(__bss_start)
 1000254:	008040b4 	movhi	r2,258
    ori r2, r2, %lo(__bss_start)
 1000258:	10a9dc14 	ori	r2,r2,42864

    movhi r3, %hi(__bss_end)
 100025c:	00c040f4 	movhi	r3,259
    ori r3, r3, %lo(__bss_end)
 1000260:	18da5814 	ori	r3,r3,26976

    beq r2, r3, 1f
 1000264:	10c00326 	beq	r2,r3,1000274 <_start+0x30>

0:
    stw zero, (r2)
 1000268:	10000015 	stw	zero,0(r2)
    addi r2, r2, 4
 100026c:	10800104 	addi	r2,r2,4
    bltu r2, r3, 0b
 1000270:	10fffd36 	bltu	r2,r3,1000268 <__alt_data_end+0xff800268>

    /* Log that alt_main is about to be called. */
    ALT_LOG_PUTS(alt_log_msg_alt_main)

    /* Call the C entry point. It should never return. */
    call alt_main
 1000274:	101aba00 	call	101aba0 <alt_main>

01000278 <alt_after_alt_main>:

    /* Wait in infinite loop in case alt_main does return. */
alt_after_alt_main:
    br alt_after_alt_main
 1000278:	003fff06 	br	1000278 <__alt_data_end+0xff800278>

0100027c <deviceInit>:
 *      Author: hailiang
 */

#include "ctrl.h"

int deviceInit() {
 100027c:	defffe04 	addi	sp,sp,-8
 1000280:	dfc00115 	stw	ra,4(sp)
 1000284:	df000015 	stw	fp,0(sp)
 1000288:	d839883a 	mov	fp,sp
	if (keyInit() < 0) {
 100028c:	1002ce40 	call	1002ce4 <keyInit>
 1000290:	1000050e 	bge	r2,zero,10002a8 <deviceInit+0x2c>
		printf("key initial failed\n");
 1000294:	010040b4 	movhi	r4,258
 1000298:	21034a04 	addi	r4,r4,3368
 100029c:	100d0000 	call	100d000 <puts>
		return -1;
 10002a0:	00bfffc4 	movi	r2,-1
 10002a4:	00001006 	br	10002e8 <deviceInit+0x6c>
	}
	if (touchInit() < 0) {
 10002a8:	10054740 	call	1005474 <touchInit>
 10002ac:	1000050e 	bge	r2,zero,10002c4 <deviceInit+0x48>
		printf("touch initial failed\n");
 10002b0:	010040b4 	movhi	r4,258
 10002b4:	21034f04 	addi	r4,r4,3388
 10002b8:	100d0000 	call	100d000 <puts>
		return -1;
 10002bc:	00bfffc4 	movi	r2,-1
 10002c0:	00000906 	br	10002e8 <deviceInit+0x6c>
	}
	if (timerInit() < 0) {
 10002c4:	100031c0 	call	100031c <timerInit>
 10002c8:	1000050e 	bge	r2,zero,10002e0 <deviceInit+0x64>
		printf("timer initial failed\n");
 10002cc:	010040b4 	movhi	r4,258
 10002d0:	21035504 	addi	r4,r4,3412
 10002d4:	100d0000 	call	100d000 <puts>
		return -1;
 10002d8:	00bfffc4 	movi	r2,-1
 10002dc:	00000206 	br	10002e8 <deviceInit+0x6c>
	}
	lcdInit();
 10002e0:	1002e380 	call	1002e38 <lcdInit>

	return 0;
 10002e4:	0005883a 	mov	r2,zero
}
 10002e8:	e037883a 	mov	sp,fp
 10002ec:	dfc00117 	ldw	ra,4(sp)
 10002f0:	df000017 	ldw	fp,0(sp)
 10002f4:	dec00204 	addi	sp,sp,8
 10002f8:	f800283a 	ret

010002fc <ctrlInit>:




void ctrlInit() {
 10002fc:	deffff04 	addi	sp,sp,-4
 1000300:	df000015 	stw	fp,0(sp)
 1000304:	d839883a 	mov	fp,sp
//	lcdDispStringBig(50, 250, BLACK, WHITE, "press any key to clear");
//	lcdDispStringBig(10, 280, BLACK, WHITE, "Gesture test:");
//	lcdDrawGrid(350, 50, 8, 10, 40, BLUE);

//	lcdDispStringBig(735,410, BLUE, WHITE,"KEY");
}
 1000308:	0001883a 	nop
 100030c:	e037883a 	mov	sp,fp
 1000310:	df000017 	ldw	fp,0(sp)
 1000314:	dec00104 	addi	sp,sp,4
 1000318:	f800283a 	ret

0100031c <timerInit>:

int timerInit(void) {
 100031c:	defffe04 	addi	sp,sp,-8
 1000320:	dfc00115 	stw	ra,4(sp)
 1000324:	df000015 	stw	fp,0(sp)
 1000328:	d839883a 	mov	fp,sp
	IOWR(TIMER0_BASE, 1, 0x07);
 100032c:	00c001c4 	movi	r3,7
 1000330:	00801034 	movhi	r2,64
 1000334:	10840104 	addi	r2,r2,4100
 1000338:	10c00035 	stwio	r3,0(r2)
	return alt_irq_register(TIMER0_IRQ, NULL, (void*) timerIsr);
 100033c:	01804034 	movhi	r6,256
 1000340:	3180d904 	addi	r6,r6,868
 1000344:	000b883a 	mov	r5,zero
 1000348:	01000084 	movi	r4,2
 100034c:	101a8300 	call	101a830 <alt_irq_register>
}
 1000350:	e037883a 	mov	sp,fp
 1000354:	dfc00117 	ldw	ra,4(sp)
 1000358:	df000017 	ldw	fp,0(sp)
 100035c:	dec00204 	addi	sp,sp,8
 1000360:	f800283a 	ret

01000364 <timerIsr>:

tcdata top = { .id = 1, .status = TOUCH_NONE, };

void timerIsr(void) {
 1000364:	defffd04 	addi	sp,sp,-12
 1000368:	dfc00215 	stw	ra,8(sp)
 100036c:	df000115 	stw	fp,4(sp)
 1000370:	df000104 	addi	fp,sp,4
	IOWR(TIMER0_BASE, 0, 0);
 1000374:	0007883a 	mov	r3,zero
 1000378:	00801034 	movhi	r2,64
 100037c:	10840004 	addi	r2,r2,4096
 1000380:	10c00035 	stwio	r3,0(r2)

	touchGetData(&top);
 1000384:	010040f4 	movhi	r4,259
 1000388:	2122d404 	addi	r4,r4,-29872
 100038c:	10070dc0 	call	10070dc <touchGetData>
	if (top.status == TOUCH_DOWN) {
 1000390:	008040f4 	movhi	r2,259
 1000394:	10a2d404 	addi	r2,r2,-29872
 1000398:	10800017 	ldw	r2,0(r2)
 100039c:	10001c26 	beq	r2,zero,1000410 <timerIsr+0xac>
		// do something
	} else if (top.status == TOUCH_CONTACT) {
 10003a0:	008040f4 	movhi	r2,259
 10003a4:	10a2d404 	addi	r2,r2,-29872
 10003a8:	10800017 	ldw	r2,0(r2)
 10003ac:	10800098 	cmpnei	r2,r2,2
 10003b0:	1000171e 	bne	r2,zero,1000410 <timerIsr+0xac>
		lcdDrawLine(top.old.x, top.old.y, top.now.x, top.now.y, RED);
 10003b4:	008040f4 	movhi	r2,259
 10003b8:	10a2d404 	addi	r2,r2,-29872
 10003bc:	1080028b 	ldhu	r2,10(r2)
 10003c0:	10ffffcc 	andi	r3,r2,65535
 10003c4:	008040f4 	movhi	r2,259
 10003c8:	10a2d404 	addi	r2,r2,-29872
 10003cc:	1080030b 	ldhu	r2,12(r2)
 10003d0:	113fffcc 	andi	r4,r2,65535
 10003d4:	008040f4 	movhi	r2,259
 10003d8:	10a2d404 	addi	r2,r2,-29872
 10003dc:	1080018b 	ldhu	r2,6(r2)
 10003e0:	117fffcc 	andi	r5,r2,65535
 10003e4:	008040f4 	movhi	r2,259
 10003e8:	10a2d404 	addi	r2,r2,-29872
 10003ec:	1080020b 	ldhu	r2,8(r2)
 10003f0:	11bfffcc 	andi	r6,r2,65535
 10003f4:	00be0014 	movui	r2,63488
 10003f8:	d8800015 	stw	r2,0(sp)
 10003fc:	300f883a 	mov	r7,r6
 1000400:	280d883a 	mov	r6,r5
 1000404:	200b883a 	mov	r5,r4
 1000408:	1809883a 	mov	r4,r3
 100040c:	100389c0 	call	100389c <lcdDrawLine>
	} else if (top.status == TOUCH_UP) {
		// do something
	}
}
 1000410:	0001883a 	nop
 1000414:	e037883a 	mov	sp,fp
 1000418:	dfc00117 	ldw	ra,4(sp)
 100041c:	df000017 	ldw	fp,0(sp)
 1000420:	dec00204 	addi	sp,sp,8
 1000424:	f800283a 	ret

01000428 <partition>:


int partition(float array[], int min, int max)
{
 1000428:	defffa04 	addi	sp,sp,-24
 100042c:	dfc00515 	stw	ra,20(sp)
 1000430:	df000415 	stw	fp,16(sp)
 1000434:	df000404 	addi	fp,sp,16
 1000438:	e13ffd15 	stw	r4,-12(fp)
 100043c:	e17ffe15 	stw	r5,-8(fp)
 1000440:	e1bfff15 	stw	r6,-4(fp)
    float p;  p = array[min];
 1000444:	e0bffe17 	ldw	r2,-8(fp)
 1000448:	1085883a 	add	r2,r2,r2
 100044c:	1085883a 	add	r2,r2,r2
 1000450:	1007883a 	mov	r3,r2
 1000454:	e0bffd17 	ldw	r2,-12(fp)
 1000458:	10c5883a 	add	r2,r2,r3
 100045c:	10800017 	ldw	r2,0(r2)
 1000460:	e0bffc15 	stw	r2,-16(fp)
    //int len = max;
    while (min < max)
 1000464:	00003f06 	br	1000564 <partition+0x13c>
    {
        while (array[max] >= p && min < max)
        {
            max--;
 1000468:	e0bfff17 	ldw	r2,-4(fp)
 100046c:	10bfffc4 	addi	r2,r2,-1
 1000470:	e0bfff15 	stw	r2,-4(fp)
{
    float p;  p = array[min];
    //int len = max;
    while (min < max)
    {
        while (array[max] >= p && min < max)
 1000474:	e0bfff17 	ldw	r2,-4(fp)
 1000478:	1085883a 	add	r2,r2,r2
 100047c:	1085883a 	add	r2,r2,r2
 1000480:	1007883a 	mov	r3,r2
 1000484:	e0bffd17 	ldw	r2,-12(fp)
 1000488:	10c5883a 	add	r2,r2,r3
 100048c:	10c00017 	ldw	r3,0(r2)
 1000490:	e17ffc17 	ldw	r5,-16(fp)
 1000494:	1809883a 	mov	r4,r3
 1000498:	100991c0 	call	100991c <__gesf2>
 100049c:	10000316 	blt	r2,zero,10004ac <partition+0x84>
 10004a0:	e0fffe17 	ldw	r3,-8(fp)
 10004a4:	e0bfff17 	ldw	r2,-4(fp)
 10004a8:	18bfef16 	blt	r3,r2,1000468 <__alt_data_end+0xff800468>
        {
            max--;
        }
        array[min] = array[max];
 10004ac:	e0bffe17 	ldw	r2,-8(fp)
 10004b0:	1085883a 	add	r2,r2,r2
 10004b4:	1085883a 	add	r2,r2,r2
 10004b8:	1007883a 	mov	r3,r2
 10004bc:	e0bffd17 	ldw	r2,-12(fp)
 10004c0:	10c7883a 	add	r3,r2,r3
 10004c4:	e0bfff17 	ldw	r2,-4(fp)
 10004c8:	1085883a 	add	r2,r2,r2
 10004cc:	1085883a 	add	r2,r2,r2
 10004d0:	1009883a 	mov	r4,r2
 10004d4:	e0bffd17 	ldw	r2,-12(fp)
 10004d8:	1109883a 	add	r4,r2,r4
 10004dc:	20800017 	ldw	r2,0(r4)
 10004e0:	18800015 	stw	r2,0(r3)
        while (array[min] <= p && min < max)
 10004e4:	00000306 	br	10004f4 <partition+0xcc>
        {
            min++;
 10004e8:	e0bffe17 	ldw	r2,-8(fp)
 10004ec:	10800044 	addi	r2,r2,1
 10004f0:	e0bffe15 	stw	r2,-8(fp)
        while (array[max] >= p && min < max)
        {
            max--;
        }
        array[min] = array[max];
        while (array[min] <= p && min < max)
 10004f4:	e0bffe17 	ldw	r2,-8(fp)
 10004f8:	1085883a 	add	r2,r2,r2
 10004fc:	1085883a 	add	r2,r2,r2
 1000500:	1007883a 	mov	r3,r2
 1000504:	e0bffd17 	ldw	r2,-12(fp)
 1000508:	10c5883a 	add	r2,r2,r3
 100050c:	10c00017 	ldw	r3,0(r2)
 1000510:	e17ffc17 	ldw	r5,-16(fp)
 1000514:	1809883a 	mov	r4,r3
 1000518:	10099d80 	call	10099d8 <__lesf2>
 100051c:	00800316 	blt	zero,r2,100052c <partition+0x104>
 1000520:	e0fffe17 	ldw	r3,-8(fp)
 1000524:	e0bfff17 	ldw	r2,-4(fp)
 1000528:	18bfef16 	blt	r3,r2,10004e8 <__alt_data_end+0xff8004e8>
        {
            min++;
        }
        array[max] = array[min];
 100052c:	e0bfff17 	ldw	r2,-4(fp)
 1000530:	1085883a 	add	r2,r2,r2
 1000534:	1085883a 	add	r2,r2,r2
 1000538:	1007883a 	mov	r3,r2
 100053c:	e0bffd17 	ldw	r2,-12(fp)
 1000540:	10c7883a 	add	r3,r2,r3
 1000544:	e0bffe17 	ldw	r2,-8(fp)
 1000548:	1085883a 	add	r2,r2,r2
 100054c:	1085883a 	add	r2,r2,r2
 1000550:	1009883a 	mov	r4,r2
 1000554:	e0bffd17 	ldw	r2,-12(fp)
 1000558:	1109883a 	add	r4,r2,r4
 100055c:	20800017 	ldw	r2,0(r4)
 1000560:	18800015 	stw	r2,0(r3)

int partition(float array[], int min, int max)
{
    float p;  p = array[min];
    //int len = max;
    while (min < max)
 1000564:	e0fffe17 	ldw	r3,-8(fp)
 1000568:	e0bfff17 	ldw	r2,-4(fp)
 100056c:	18bfc116 	blt	r3,r2,1000474 <__alt_data_end+0xff800474>
        {
            min++;
        }
        array[max] = array[min];
    }
    array[min] = p;
 1000570:	e0bffe17 	ldw	r2,-8(fp)
 1000574:	1085883a 	add	r2,r2,r2
 1000578:	1085883a 	add	r2,r2,r2
 100057c:	1007883a 	mov	r3,r2
 1000580:	e0bffd17 	ldw	r2,-12(fp)
 1000584:	10c5883a 	add	r2,r2,r3
 1000588:	e0fffc17 	ldw	r3,-16(fp)
 100058c:	10c00015 	stw	r3,0(r2)
    //printf("%d\n", min);
    return  min;
 1000590:	e0bffe17 	ldw	r2,-8(fp)
}
 1000594:	e037883a 	mov	sp,fp
 1000598:	dfc00117 	ldw	ra,4(sp)
 100059c:	df000017 	ldw	fp,0(sp)
 10005a0:	dec00204 	addi	sp,sp,8
 10005a4:	f800283a 	ret

010005a8 <quicksort>:

void quicksort(float array[], int min, int max)
{
 10005a8:	defffa04 	addi	sp,sp,-24
 10005ac:	dfc00515 	stw	ra,20(sp)
 10005b0:	df000415 	stw	fp,16(sp)
 10005b4:	df000404 	addi	fp,sp,16
 10005b8:	e13ffd15 	stw	r4,-12(fp)
 10005bc:	e17ffe15 	stw	r5,-8(fp)
 10005c0:	e1bfff15 	stw	r6,-4(fp)
    int p;
    int i;
    p = partition(array, min, max);
 10005c4:	e1bfff17 	ldw	r6,-4(fp)
 10005c8:	e17ffe17 	ldw	r5,-8(fp)
 10005cc:	e13ffd17 	ldw	r4,-12(fp)
 10005d0:	10004280 	call	1000428 <partition>
 10005d4:	e0bffc15 	stw	r2,-16(fp)

    if (min < max)
 10005d8:	e0fffe17 	ldw	r3,-8(fp)
 10005dc:	e0bfff17 	ldw	r2,-4(fp)
 10005e0:	18800c0e 	bge	r3,r2,1000614 <quicksort+0x6c>
    {
        quicksort(array, min, p - 1);
 10005e4:	e0bffc17 	ldw	r2,-16(fp)
 10005e8:	10bfffc4 	addi	r2,r2,-1
 10005ec:	100d883a 	mov	r6,r2
 10005f0:	e17ffe17 	ldw	r5,-8(fp)
 10005f4:	e13ffd17 	ldw	r4,-12(fp)
 10005f8:	10005a80 	call	10005a8 <quicksort>
        quicksort(array, p + 1, max);
 10005fc:	e0bffc17 	ldw	r2,-16(fp)
 1000600:	10800044 	addi	r2,r2,1
 1000604:	e1bfff17 	ldw	r6,-4(fp)
 1000608:	100b883a 	mov	r5,r2
 100060c:	e13ffd17 	ldw	r4,-12(fp)
 1000610:	10005a80 	call	10005a8 <quicksort>
    }
}
 1000614:	0001883a 	nop
 1000618:	e037883a 	mov	sp,fp
 100061c:	dfc00117 	ldw	ra,4(sp)
 1000620:	df000017 	ldw	fp,0(sp)
 1000624:	dec00204 	addi	sp,sp,8
 1000628:	f800283a 	ret

0100062c <change>:
void change(float array[],int n){// 1
 100062c:	defffb04 	addi	sp,sp,-20
 1000630:	df000415 	stw	fp,16(sp)
 1000634:	df000404 	addi	fp,sp,16
 1000638:	e13ffe15 	stw	r4,-8(fp)
 100063c:	e17fff15 	stw	r5,-4(fp)
int i;
float temp;
for(i=0;i<n/2;i++)
 1000640:	e03ffc15 	stw	zero,-16(fp)
 1000644:	00002706 	br	10006e4 <change+0xb8>
{
temp=array[i];
 1000648:	e0bffc17 	ldw	r2,-16(fp)
 100064c:	1085883a 	add	r2,r2,r2
 1000650:	1085883a 	add	r2,r2,r2
 1000654:	1007883a 	mov	r3,r2
 1000658:	e0bffe17 	ldw	r2,-8(fp)
 100065c:	10c5883a 	add	r2,r2,r3
 1000660:	10800017 	ldw	r2,0(r2)
 1000664:	e0bffd15 	stw	r2,-12(fp)
array[i]=array[n-1-i];
 1000668:	e0bffc17 	ldw	r2,-16(fp)
 100066c:	1085883a 	add	r2,r2,r2
 1000670:	1085883a 	add	r2,r2,r2
 1000674:	1007883a 	mov	r3,r2
 1000678:	e0bffe17 	ldw	r2,-8(fp)
 100067c:	10c7883a 	add	r3,r2,r3
 1000680:	e0bfff17 	ldw	r2,-4(fp)
 1000684:	113fffc4 	addi	r4,r2,-1
 1000688:	e0bffc17 	ldw	r2,-16(fp)
 100068c:	2085c83a 	sub	r2,r4,r2
 1000690:	1085883a 	add	r2,r2,r2
 1000694:	1085883a 	add	r2,r2,r2
 1000698:	1009883a 	mov	r4,r2
 100069c:	e0bffe17 	ldw	r2,-8(fp)
 10006a0:	1109883a 	add	r4,r2,r4
 10006a4:	20800017 	ldw	r2,0(r4)
 10006a8:	18800015 	stw	r2,0(r3)
array[n-1-i]=temp;
 10006ac:	e0bfff17 	ldw	r2,-4(fp)
 10006b0:	10ffffc4 	addi	r3,r2,-1
 10006b4:	e0bffc17 	ldw	r2,-16(fp)
 10006b8:	1885c83a 	sub	r2,r3,r2
 10006bc:	1085883a 	add	r2,r2,r2
 10006c0:	1085883a 	add	r2,r2,r2
 10006c4:	1007883a 	mov	r3,r2
 10006c8:	e0bffe17 	ldw	r2,-8(fp)
 10006cc:	10c5883a 	add	r2,r2,r3
 10006d0:	e0fffd17 	ldw	r3,-12(fp)
 10006d4:	10c00015 	stw	r3,0(r2)
    }
}
void change(float array[],int n){// 1
int i;
float temp;
for(i=0;i<n/2;i++)
 10006d8:	e0bffc17 	ldw	r2,-16(fp)
 10006dc:	10800044 	addi	r2,r2,1
 10006e0:	e0bffc15 	stw	r2,-16(fp)
 10006e4:	e0bfff17 	ldw	r2,-4(fp)
 10006e8:	1006d7fa 	srli	r3,r2,31
 10006ec:	1885883a 	add	r2,r3,r2
 10006f0:	1005d07a 	srai	r2,r2,1
 10006f4:	1007883a 	mov	r3,r2
 10006f8:	e0bffc17 	ldw	r2,-16(fp)
 10006fc:	10ffd216 	blt	r2,r3,1000648 <__alt_data_end+0xff800648>
{
temp=array[i];
array[i]=array[n-1-i];
array[n-1-i]=temp;
}
}
 1000700:	0001883a 	nop
 1000704:	e037883a 	mov	sp,fp
 1000708:	df000017 	ldw	fp,0(sp)
 100070c:	dec00104 	addi	sp,sp,4
 1000710:	f800283a 	ret

01000714 <figure>:
 *      Author: huawei
 */
#include "draw.h"

void figure(u8 sel, bool c)
{
 1000714:	defffc04 	addi	sp,sp,-16
 1000718:	dfc00315 	stw	ra,12(sp)
 100071c:	df000215 	stw	fp,8(sp)
 1000720:	df000204 	addi	fp,sp,8
 1000724:	2005883a 	mov	r2,r4
 1000728:	e17fff15 	stw	r5,-4(fp)
 100072c:	e0bffe05 	stb	r2,-8(fp)
	if(c) clear(sel);
 1000730:	e0bfff17 	ldw	r2,-4(fp)
 1000734:	10000326 	beq	r2,zero,1000744 <figure+0x30>
 1000738:	e0bffe03 	ldbu	r2,-8(fp)
 100073c:	1009883a 	mov	r4,r2
 1000740:	100075c0 	call	100075c <clear>
	if(sel & BIT0)
	{
	}
}
 1000744:	0001883a 	nop
 1000748:	e037883a 	mov	sp,fp
 100074c:	dfc00117 	ldw	ra,4(sp)
 1000750:	df000017 	ldw	fp,0(sp)
 1000754:	dec00204 	addi	sp,sp,8
 1000758:	f800283a 	ret

0100075c <clear>:

void clear(u8 sel)
{
 100075c:	defffc04 	addi	sp,sp,-16
 1000760:	dfc00315 	stw	ra,12(sp)
 1000764:	df000215 	stw	fp,8(sp)
 1000768:	df000204 	addi	fp,sp,8
 100076c:	2005883a 	mov	r2,r4
 1000770:	e0bfff05 	stb	r2,-4(fp)
	if(sel & BIT0)
 1000774:	e0bfff03 	ldbu	r2,-4(fp)
 1000778:	1080004c 	andi	r2,r2,1
 100077c:	10000726 	beq	r2,zero,100079c <clear+0x40>
	{
		lcdRectClear(0, 0, HDP, VDP, BACKGROUND);
 1000780:	00bfffd4 	movui	r2,65535
 1000784:	d8800015 	stw	r2,0(sp)
 1000788:	01c077c4 	movi	r7,479
 100078c:	0180c7c4 	movi	r6,799
 1000790:	000b883a 	mov	r5,zero
 1000794:	0009883a 	mov	r4,zero
 1000798:	100328c0 	call	100328c <lcdRectClear>
	}
	if(sel & BIT1)
	{

	}
}
 100079c:	0001883a 	nop
 10007a0:	e037883a 	mov	sp,fp
 10007a4:	dfc00117 	ldw	ra,4(sp)
 10007a8:	df000017 	ldw	fp,0(sp)
 10007ac:	dec00204 	addi	sp,sp,8
 10007b0:	f800283a 	ret

010007b4 <figure_init>:

void figure_init()
{
 10007b4:	defffe04 	addi	sp,sp,-8
 10007b8:	dfc00115 	stw	ra,4(sp)
 10007bc:	df000015 	stw	fp,0(sp)
 10007c0:	d839883a 	mov	fp,sp
	figure(0, true);
 10007c4:	01400044 	movi	r5,1
 10007c8:	0009883a 	mov	r4,zero
 10007cc:	10007140 	call	1000714 <figure>
}
 10007d0:	0001883a 	nop
 10007d4:	e037883a 	mov	sp,fp
 10007d8:	dfc00117 	ldw	ra,4(sp)
 10007dc:	df000017 	ldw	fp,0(sp)
 10007e0:	dec00204 	addi	sp,sp,8
 10007e4:	f800283a 	ret

010007e8 <main>:
void Paint_w(int ww,float fre_now);
void Storage(void);

void setSwitch();

int main() {
 10007e8:	defffd04 	addi	sp,sp,-12
 10007ec:	dfc00215 	stw	ra,8(sp)
 10007f0:	df000115 	stw	fp,4(sp)
 10007f4:	df000104 	addi	fp,sp,4
	//
	printf("Hello lemon\n");
 10007f8:	010040b4 	movhi	r4,258
 10007fc:	210f5b04 	addi	r4,r4,15724
 1000800:	100d0000 	call	100d000 <puts>
	if (deviceInit() < 0) {
 1000804:	100027c0 	call	100027c <deviceInit>
 1000808:	1000050e 	bge	r2,zero,1000820 <main+0x38>
		printf("device initial failed\n");
 100080c:	010040b4 	movhi	r4,258
 1000810:	210f5e04 	addi	r4,r4,15736
 1000814:	100d0000 	call	100d000 <puts>
		return -1;
 1000818:	00bfffc4 	movi	r2,-1
 100081c:	00001406 	br	1000870 <main+0x88>
	}

	lcdRectClear(0, 0, 799, 479, WHITE);
 1000820:	00bfffd4 	movui	r2,65535
 1000824:	d8800015 	stw	r2,0(sp)
 1000828:	01c077c4 	movi	r7,479
 100082c:	0180c7c4 	movi	r6,799
 1000830:	000b883a 	mov	r5,zero
 1000834:	0009883a 	mov	r4,zero
 1000838:	100328c0 	call	100328c <lcdRectClear>
//	init();

	//
	while (1)
	{
		lcdDrawPoint(10, 11, RED);
 100083c:	01be0014 	movui	r6,63488
 1000840:	014002c4 	movi	r5,11
 1000844:	01000284 	movi	r4,10
 1000848:	10031d40 	call	10031d4 <lcdDrawPoint>
		lcdDrawPoint(10, 12, BLACK);
 100084c:	000d883a 	mov	r6,zero
 1000850:	01400304 	movi	r5,12
 1000854:	01000284 	movi	r4,10
 1000858:	10031d40 	call	10031d4 <lcdDrawPoint>

			choosed = 0;
		}
		*/
//		disFre(getFre());
		if(flag == 1){
 100085c:	d0a03417 	ldw	r2,-32560(gp)
 1000860:	10800058 	cmpnei	r2,r2,1
 1000864:	103ff51e 	bne	r2,zero,100083c <__alt_data_end+0xff80083c>

			flag = 0;
 1000868:	d0203415 	stw	zero,-32560(gp)
		}
	}
 100086c:	003ff306 	br	100083c <__alt_data_end+0xff80083c>

	return 0;
}
 1000870:	e037883a 	mov	sp,fp
 1000874:	dfc00117 	ldw	ra,4(sp)
 1000878:	df000017 	ldw	fp,0(sp)
 100087c:	dec00204 	addi	sp,sp,8
 1000880:	f800283a 	ret

01000884 <init>:

/*******************************************************************************************/

void init(){
 1000884:	defffe04 	addi	sp,sp,-8
 1000888:	dfc00115 	stw	ra,4(sp)
 100088c:	df000015 	stw	fp,0(sp)
 1000890:	d839883a 	mov	fp,sp
	init_dis();
 1000894:	10008b40 	call	10008b4 <init_dis>

	//
	//
	init_flag();
 1000898:	10009a80 	call	10009a8 <init_flag>

}
 100089c:	0001883a 	nop
 10008a0:	e037883a 	mov	sp,fp
 10008a4:	dfc00117 	ldw	ra,4(sp)
 10008a8:	df000017 	ldw	fp,0(sp)
 10008ac:	dec00204 	addi	sp,sp,8
 10008b0:	f800283a 	ret

010008b4 <init_dis>:

void init_dis(){
 10008b4:	defffc04 	addi	sp,sp,-16
 10008b8:	dfc00315 	stw	ra,12(sp)
 10008bc:	df000215 	stw	fp,8(sp)
 10008c0:	df000204 	addi	fp,sp,8
	lcdRectClear(0, 0, 799, 479, WHITE);
 10008c4:	00bfffd4 	movui	r2,65535
 10008c8:	d8800015 	stw	r2,0(sp)
 10008cc:	01c077c4 	movi	r7,479
 10008d0:	0180c7c4 	movi	r6,799
 10008d4:	000b883a 	mov	r5,zero
 10008d8:	0009883a 	mov	r4,zero
 10008dc:	100328c0 	call	100328c <lcdRectClear>
	lcdDispNumtable(Num_X, Num_Y);
 10008e0:	d0a00417 	ldw	r2,-32752(gp)
 10008e4:	d0e00517 	ldw	r3,-32748(gp)
 10008e8:	180b883a 	mov	r5,r3
 10008ec:	1009883a 	mov	r4,r2
 10008f0:	1004a280 	call	1004a28 <lcdDispNumtable>
//	lcdDrawRect(220, 28, 620, 348, BLACK);
	lcdDrawGrid(220, 28, 8, 10, 40, DGRAY);
 10008f4:	009efbc4 	movi	r2,31727
 10008f8:	d8800115 	stw	r2,4(sp)
 10008fc:	00800a04 	movi	r2,40
 1000900:	d8800015 	stw	r2,0(sp)
 1000904:	01c00284 	movi	r7,10
 1000908:	01800204 	movi	r6,8
 100090c:	01400704 	movi	r5,28
 1000910:	01003704 	movi	r4,220
 1000914:	1003e4c0 	call	1003e4c <lcdDrawGrid>
	lcdDispStringSmall(Num_X+5, Num_Y+370, BLACK, WHITE, "V_Tri");
 1000918:	d0a00417 	ldw	r2,-32752(gp)
 100091c:	10800144 	addi	r2,r2,5
 1000920:	10ffffcc 	andi	r3,r2,65535
 1000924:	d0a00517 	ldw	r2,-32748(gp)
 1000928:	10805c84 	addi	r2,r2,370
 100092c:	113fffcc 	andi	r4,r2,65535
 1000930:	008040b4 	movhi	r2,258
 1000934:	108f6404 	addi	r2,r2,15760
 1000938:	d8800015 	stw	r2,0(sp)
 100093c:	01ffffd4 	movui	r7,65535
 1000940:	000d883a 	mov	r6,zero
 1000944:	200b883a 	mov	r5,r4
 1000948:	1809883a 	mov	r4,r3
 100094c:	10042500 	call	1004250 <lcdDispStringSmall>

	lcdDispStringSmall(230, 358, BLUE, WHITE, "Vpp");
 1000950:	008040b4 	movhi	r2,258
 1000954:	108f6604 	addi	r2,r2,15768
 1000958:	d8800015 	stw	r2,0(sp)
 100095c:	01ffffd4 	movui	r7,65535
 1000960:	018007c4 	movi	r6,31
 1000964:	01405984 	movi	r5,358
 1000968:	01003984 	movi	r4,230
 100096c:	10042500 	call	1004250 <lcdDispStringSmall>
	lcdDispStringSmall(230, 378, BLUE, WHITE, "Fre");
 1000970:	008040b4 	movhi	r2,258
 1000974:	108f6704 	addi	r2,r2,15772
 1000978:	d8800015 	stw	r2,0(sp)
 100097c:	01ffffd4 	movui	r7,65535
 1000980:	018007c4 	movi	r6,31
 1000984:	01405e84 	movi	r5,378
 1000988:	01003984 	movi	r4,230
 100098c:	10042500 	call	1004250 <lcdDispStringSmall>
//	lcdDispStringSmall(230, 398, BLUE, WHITE, "Vmax");
//	lcdDispStringSmall(230, 418, BLUE, WHITE, "Vmin");
}
 1000990:	0001883a 	nop
 1000994:	e037883a 	mov	sp,fp
 1000998:	dfc00117 	ldw	ra,4(sp)
 100099c:	df000017 	ldw	fp,0(sp)
 10009a0:	dec00204 	addi	sp,sp,8
 10009a4:	f800283a 	ret

010009a8 <init_flag>:

void init_flag(){
 10009a8:	deffff04 	addi	sp,sp,-4
 10009ac:	df000015 	stw	fp,0(sp)
 10009b0:	d839883a 	mov	fp,sp
	IOWR(CLK_SAMPLE_KW_BASE, 0, KW_init);
 10009b4:	d0e00017 	ldw	r3,-32768(gp)
 10009b8:	00801034 	movhi	r2,64
 10009bc:	10842c04 	addi	r2,r2,4272
 10009c0:	10c00035 	stwio	r3,0(r2)
	IOWR(SAMPLE_TIME_BASE, 0, Times_init);
 10009c4:	d0e00117 	ldw	r3,-32764(gp)
 10009c8:	00801034 	movhi	r2,64
 10009cc:	10842804 	addi	r2,r2,4256
 10009d0:	10c00035 	stwio	r3,0(r2)
}
 10009d4:	0001883a 	nop
 10009d8:	e037883a 	mov	sp,fp
 10009dc:	df000017 	ldw	fp,0(sp)
 10009e0:	dec00104 	addi	sp,sp,4
 10009e4:	f800283a 	ret

010009e8 <Amp>:
*	
*	:mV
*************************************************************************************************/

//Amplitude
void Amp(int ifshow){	//ifshow =0:		=1:
 10009e8:	defffc04 	addi	sp,sp,-16
 10009ec:	dfc00315 	stw	ra,12(sp)
 10009f0:	df000215 	stw	fp,8(sp)
 10009f4:	df000204 	addi	fp,sp,8
 10009f8:	e13fff15 	stw	r4,-4(fp)
	while(!IORD(VPP_FOUND_BASE, 0));
 10009fc:	0001883a 	nop
 1000a00:	00801034 	movhi	r2,64
 1000a04:	10842004 	addi	r2,r2,4224
 1000a08:	10800037 	ldwio	r2,0(r2)
 1000a0c:	103ffc26 	beq	r2,zero,1000a00 <__alt_data_end+0xff800a00>
	rdv = IORD(VPP_BASE, 0);
 1000a10:	00801034 	movhi	r2,64
 1000a14:	10842404 	addi	r2,r2,4240
 1000a18:	10800037 	ldwio	r2,0(r2)
 1000a1c:	d0a01e0d 	sth	r2,-32648(gp)
	rdmax = IORD(V_MAX_BASE, 0);
 1000a20:	00801034 	movhi	r2,64
 1000a24:	10841c04 	addi	r2,r2,4208
 1000a28:	10800037 	ldwio	r2,0(r2)
 1000a2c:	d0a01e8d 	sth	r2,-32646(gp)
	rdmin = IORD(V_MIN_BASE, 0);
 1000a30:	00801034 	movhi	r2,64
 1000a34:	10841804 	addi	r2,r2,4192
 1000a38:	10800037 	ldwio	r2,0(r2)
 1000a3c:	d0a01f0d 	sth	r2,-32644(gp)
	rdac_zero = (rdmax+rdmin)/2;
 1000a40:	d0a01e8b 	ldhu	r2,-32646(gp)
 1000a44:	10ffffcc 	andi	r3,r2,65535
 1000a48:	d0a01f0b 	ldhu	r2,-32644(gp)
 1000a4c:	10bfffcc 	andi	r2,r2,65535
 1000a50:	1885883a 	add	r2,r3,r2
 1000a54:	1006d7fa 	srli	r3,r2,31
 1000a58:	1885883a 	add	r2,r3,r2
 1000a5c:	1005d07a 	srai	r2,r2,1
 1000a60:	d0a0230d 	sth	r2,-32628(gp)

	vpp = getVpp(rdv);
 1000a64:	d0a01e0b 	ldhu	r2,-32648(gp)
 1000a68:	10bfffcc 	andi	r2,r2,65535
 1000a6c:	1009883a 	mov	r4,r2
 1000a70:	100c94c0 	call	100c94c <__floatunsidf>
 1000a74:	100b883a 	mov	r5,r2
 1000a78:	180d883a 	mov	r6,r3
 1000a7c:	2809883a 	mov	r4,r5
 1000a80:	300b883a 	mov	r5,r6
 1000a84:	1000bd40 	call	1000bd4 <getVpp>
 1000a88:	1009883a 	mov	r4,r2
 1000a8c:	180b883a 	mov	r5,r3
 1000a90:	d1202d15 	stw	r4,-32588(gp)
 1000a94:	d1602e15 	stw	r5,-32584(gp)
	vmax = getVpp(rdmax-Vref);
 1000a98:	d0a01e8b 	ldhu	r2,-32646(gp)
 1000a9c:	10bfffcc 	andi	r2,r2,65535
 1000aa0:	10be0c04 	addi	r2,r2,-2000
 1000aa4:	1009883a 	mov	r4,r2
 1000aa8:	100c8700 	call	100c870 <__floatsidf>
 1000aac:	100b883a 	mov	r5,r2
 1000ab0:	180d883a 	mov	r6,r3
 1000ab4:	2809883a 	mov	r4,r5
 1000ab8:	300b883a 	mov	r5,r6
 1000abc:	1000bd40 	call	1000bd4 <getVpp>
 1000ac0:	1009883a 	mov	r4,r2
 1000ac4:	180b883a 	mov	r5,r3
 1000ac8:	d1202f15 	stw	r4,-32580(gp)
 1000acc:	d1603015 	stw	r5,-32576(gp)
	vmin = getVpp(rdmin-Vref);
 1000ad0:	d0a01f0b 	ldhu	r2,-32644(gp)
 1000ad4:	10bfffcc 	andi	r2,r2,65535
 1000ad8:	10be0c04 	addi	r2,r2,-2000
 1000adc:	1009883a 	mov	r4,r2
 1000ae0:	100c8700 	call	100c870 <__floatsidf>
 1000ae4:	100b883a 	mov	r5,r2
 1000ae8:	180d883a 	mov	r6,r3
 1000aec:	2809883a 	mov	r4,r5
 1000af0:	300b883a 	mov	r5,r6
 1000af4:	1000bd40 	call	1000bd4 <getVpp>
 1000af8:	1009883a 	mov	r4,r2
 1000afc:	180b883a 	mov	r5,r3
 1000b00:	d1202b15 	stw	r4,-32596(gp)
 1000b04:	d1602c15 	stw	r5,-32592(gp)

	if(ifshow){
 1000b08:	e0bfff17 	ldw	r2,-4(fp)
 1000b0c:	10002b26 	beq	r2,zero,1000bbc <Amp+0x1d4>
		lcdRectClear(100, 100, 200, 200, WHITE);
 1000b10:	00bfffd4 	movui	r2,65535
 1000b14:	d8800015 	stw	r2,0(sp)
 1000b18:	01c03204 	movi	r7,200
 1000b1c:	01803204 	movi	r6,200
 1000b20:	01401904 	movi	r5,100
 1000b24:	01001904 	movi	r4,100
 1000b28:	100328c0 	call	100328c <lcdRectClear>
		lcdDispFloatSmall(100, 100, BLACK, WHITE, vpp);
 1000b2c:	d0a02d17 	ldw	r2,-32588(gp)
 1000b30:	d0e02e17 	ldw	r3,-32584(gp)
 1000b34:	1009883a 	mov	r4,r2
 1000b38:	180b883a 	mov	r5,r3
 1000b3c:	100cb040 	call	100cb04 <__truncdfsf2>
 1000b40:	1007883a 	mov	r3,r2
 1000b44:	d8c00015 	stw	r3,0(sp)
 1000b48:	01ffffd4 	movui	r7,65535
 1000b4c:	000d883a 	mov	r6,zero
 1000b50:	01401904 	movi	r5,100
 1000b54:	01001904 	movi	r4,100
 1000b58:	10045600 	call	1004560 <lcdDispFloatSmall>

		lcdDispFloatSmall(100, 130, BLACK, WHITE, vmax);
 1000b5c:	d0a02f17 	ldw	r2,-32580(gp)
 1000b60:	d0e03017 	ldw	r3,-32576(gp)
 1000b64:	1009883a 	mov	r4,r2
 1000b68:	180b883a 	mov	r5,r3
 1000b6c:	100cb040 	call	100cb04 <__truncdfsf2>
 1000b70:	1007883a 	mov	r3,r2
 1000b74:	d8c00015 	stw	r3,0(sp)
 1000b78:	01ffffd4 	movui	r7,65535
 1000b7c:	000d883a 	mov	r6,zero
 1000b80:	01402084 	movi	r5,130
 1000b84:	01001904 	movi	r4,100
 1000b88:	10045600 	call	1004560 <lcdDispFloatSmall>
		lcdDispFloatSmall(100, 160, BLACK, WHITE, vmin);
 1000b8c:	d0a02b17 	ldw	r2,-32596(gp)
 1000b90:	d0e02c17 	ldw	r3,-32592(gp)
 1000b94:	1009883a 	mov	r4,r2
 1000b98:	180b883a 	mov	r5,r3
 1000b9c:	100cb040 	call	100cb04 <__truncdfsf2>
 1000ba0:	1007883a 	mov	r3,r2
 1000ba4:	d8c00015 	stw	r3,0(sp)
 1000ba8:	01ffffd4 	movui	r7,65535
 1000bac:	000d883a 	mov	r6,zero
 1000bb0:	01402804 	movi	r5,160
 1000bb4:	01001904 	movi	r4,100
 1000bb8:	10045600 	call	1004560 <lcdDispFloatSmall>
	}
}
 1000bbc:	0001883a 	nop
 1000bc0:	e037883a 	mov	sp,fp
 1000bc4:	dfc00117 	ldw	ra,4(sp)
 1000bc8:	df000017 	ldw	fp,0(sp)
 1000bcc:	dec00204 	addi	sp,sp,8
 1000bd0:	f800283a 	ret

01000bd4 <getVpp>:

double getVpp(double vrd){
 1000bd4:	defffa04 	addi	sp,sp,-24
 1000bd8:	dfc00515 	stw	ra,20(sp)
 1000bdc:	df000415 	stw	fp,16(sp)
 1000be0:	df000404 	addi	fp,sp,16
 1000be4:	e13ffe15 	stw	r4,-8(fp)
 1000be8:	e17fff15 	stw	r5,-4(fp)
	double vin;
	vin = vrd * 1.312-1.323;
 1000bec:	01ad91b4 	movhi	r6,46662
 1000bf0:	31a872c4 	addi	r6,r6,-24117
 1000bf4:	01cffd74 	movhi	r7,16373
 1000bf8:	39ff7cc4 	addi	r7,r7,-525
 1000bfc:	e13ffe17 	ldw	r4,-8(fp)
 1000c00:	e17fff17 	ldw	r5,-4(fp)
 1000c04:	100b7dc0 	call	100b7dc <__muldf3>
 1000c08:	1009883a 	mov	r4,r2
 1000c0c:	180b883a 	mov	r5,r3
 1000c10:	2005883a 	mov	r2,r4
 1000c14:	2807883a 	mov	r3,r5
 1000c18:	018312b4 	movhi	r6,3146
 1000c1c:	31ae9784 	addi	r6,r6,-17826
 1000c20:	01cffd74 	movhi	r7,16373
 1000c24:	39cac084 	addi	r7,r7,11010
 1000c28:	1009883a 	mov	r4,r2
 1000c2c:	180b883a 	mov	r5,r3
 1000c30:	100bef40 	call	100bef4 <__subdf3>
 1000c34:	1009883a 	mov	r4,r2
 1000c38:	180b883a 	mov	r5,r3
 1000c3c:	e13ffc15 	stw	r4,-16(fp)
 1000c40:	e17ffd15 	stw	r5,-12(fp)
	if(vin <= 0){
 1000c44:	000d883a 	mov	r6,zero
 1000c48:	000f883a 	mov	r7,zero
 1000c4c:	e13ffc17 	ldw	r4,-16(fp)
 1000c50:	e17ffd17 	ldw	r5,-12(fp)
 1000c54:	100b6e80 	call	100b6e8 <__ledf2>
 1000c58:	00800416 	blt	zero,r2,1000c6c <getVpp+0x98>
		vin = vrd;
 1000c5c:	e0bffe17 	ldw	r2,-8(fp)
 1000c60:	e0bffc15 	stw	r2,-16(fp)
 1000c64:	e0bfff17 	ldw	r2,-4(fp)
 1000c68:	e0bffd15 	stw	r2,-12(fp)
	}
	if(choosed){
 1000c6c:	d0a02117 	ldw	r2,-32636(gp)
 1000c70:	10000b26 	beq	r2,zero,1000ca0 <getVpp+0xcc>
		vin = vin*Mult;
 1000c74:	d0a03117 	ldw	r2,-32572(gp)
 1000c78:	d0e03217 	ldw	r3,-32568(gp)
 1000c7c:	100d883a 	mov	r6,r2
 1000c80:	180f883a 	mov	r7,r3
 1000c84:	e13ffc17 	ldw	r4,-16(fp)
 1000c88:	e17ffd17 	ldw	r5,-12(fp)
 1000c8c:	100b7dc0 	call	100b7dc <__muldf3>
 1000c90:	1009883a 	mov	r4,r2
 1000c94:	180b883a 	mov	r5,r3
 1000c98:	e13ffc15 	stw	r4,-16(fp)
 1000c9c:	e17ffd15 	stw	r5,-12(fp)
//		case 2: vin = vin*Mul1;
//			break;
//		default: vin = vin*Mul1;	break;
//		}
	}
	return vin;
 1000ca0:	e0bffc17 	ldw	r2,-16(fp)
 1000ca4:	e0fffd17 	ldw	r3,-12(fp)
 1000ca8:	1009883a 	mov	r4,r2
 1000cac:	180b883a 	mov	r5,r3
}
 1000cb0:	2005883a 	mov	r2,r4
 1000cb4:	2807883a 	mov	r3,r5
 1000cb8:	e037883a 	mov	sp,fp
 1000cbc:	dfc00117 	ldw	ra,4(sp)
 1000cc0:	df000017 	ldw	fp,0(sp)
 1000cc4:	dec00204 	addi	sp,sp,8
 1000cc8:	f800283a 	ret

01000ccc <getFre>:
*	
*	:Hz			~~~100M
*				// 2001000Hz~10MHz~200MHz
*************************************************************************************************/

double getFre(){
 1000ccc:	defff904 	addi	sp,sp,-28
 1000cd0:	dfc00615 	stw	ra,24(sp)
 1000cd4:	df000515 	stw	fp,20(sp)
 1000cd8:	dc400415 	stw	r17,16(sp)
 1000cdc:	dc000315 	stw	r16,12(sp)
 1000ce0:	df000504 	addi	fp,sp,20
	printf("Begin to measure fre.\n");
 1000ce4:	010040b4 	movhi	r4,258
 1000ce8:	210f6804 	addi	r4,r4,15776
 1000cec:	100d0000 	call	100d000 <puts>
	int clk_num, sig_num;
	clk_num = IORD(FMEASURE_CLK_BASE, 0);
 1000cf0:	00801034 	movhi	r2,64
 1000cf4:	10843404 	addi	r2,r2,4304
 1000cf8:	10800037 	ldwio	r2,0(r2)
 1000cfc:	e0bffc15 	stw	r2,-16(fp)
	sig_num = IORD(FMEASURE_SQR_BASE, 0);
 1000d00:	00801034 	movhi	r2,64
 1000d04:	10843004 	addi	r2,r2,4288
 1000d08:	10800037 	ldwio	r2,0(r2)
 1000d0c:	e0bffd15 	stw	r2,-12(fp)
	printf("clk_num = %d, sig_num = %d\n",clk_num,sig_num);
 1000d10:	e1bffd17 	ldw	r6,-12(fp)
 1000d14:	e17ffc17 	ldw	r5,-16(fp)
 1000d18:	010040b4 	movhi	r4,258
 1000d1c:	210f6e04 	addi	r4,r4,15800
 1000d20:	100cf040 	call	100cf04 <printf>
	if(clk_num){
 1000d24:	e0bffc17 	ldw	r2,-16(fp)
 1000d28:	10001e26 	beq	r2,zero,1000da4 <getFre+0xd8>
		fre_meas = sig_num*100000000.0/(clk_num);
 1000d2c:	e13ffd17 	ldw	r4,-12(fp)
 1000d30:	100c8700 	call	100c870 <__floatsidf>
 1000d34:	1011883a 	mov	r8,r2
 1000d38:	1813883a 	mov	r9,r3
 1000d3c:	000d883a 	mov	r6,zero
 1000d40:	01d06634 	movhi	r7,16792
 1000d44:	39f5e104 	addi	r7,r7,-10364
 1000d48:	4009883a 	mov	r4,r8
 1000d4c:	480b883a 	mov	r5,r9
 1000d50:	100b7dc0 	call	100b7dc <__muldf3>
 1000d54:	1009883a 	mov	r4,r2
 1000d58:	180b883a 	mov	r5,r3
 1000d5c:	2021883a 	mov	r16,r4
 1000d60:	2823883a 	mov	r17,r5
 1000d64:	e13ffc17 	ldw	r4,-16(fp)
 1000d68:	100c8700 	call	100c870 <__floatsidf>
 1000d6c:	1009883a 	mov	r4,r2
 1000d70:	180b883a 	mov	r5,r3
 1000d74:	200d883a 	mov	r6,r4
 1000d78:	280f883a 	mov	r7,r5
 1000d7c:	8009883a 	mov	r4,r16
 1000d80:	880b883a 	mov	r5,r17
 1000d84:	100ac9c0 	call	100ac9c <__divdf3>
 1000d88:	1009883a 	mov	r4,r2
 1000d8c:	180b883a 	mov	r5,r3
 1000d90:	2005883a 	mov	r2,r4
 1000d94:	2807883a 	mov	r3,r5
 1000d98:	d0a02915 	stw	r2,-32604(gp)
 1000d9c:	d0e02a15 	stw	r3,-32600(gp)
 1000da0:	00000206 	br	1000dac <getFre+0xe0>
		else
			fre_meas = (sig_num*1000/(clk_num))*100000;		//
			*/
	}
	else{
		fre_meas = 0;
 1000da4:	d0202915 	stw	zero,-32604(gp)
 1000da8:	d0202a15 	stw	zero,-32600(gp)
	}
//	printf("***1***:%d\n***2***:%d\n***3***:%d\n",(sig_num*100000000/(clk_num)),(sig_num*10000000/(clk_num))*10,(sig_num*1000000/(clk_num))*100);
//	printf("***4***:%d\n***5***:%d\n***6***:%d\n",(sig_num*100000/(clk_num))*1000,(sig_num*10000/(clk_num))*10000,(sig_num*1000/(clk_num))*100000);
	printf("***1***:%f\n***2***:%f\n\n",(sig_num*100000000.0/(clk_num)),fre_meas);
 1000dac:	e13ffd17 	ldw	r4,-12(fp)
 1000db0:	100c8700 	call	100c870 <__floatsidf>
 1000db4:	1011883a 	mov	r8,r2
 1000db8:	1813883a 	mov	r9,r3
 1000dbc:	000d883a 	mov	r6,zero
 1000dc0:	01d06634 	movhi	r7,16792
 1000dc4:	39f5e104 	addi	r7,r7,-10364
 1000dc8:	4009883a 	mov	r4,r8
 1000dcc:	480b883a 	mov	r5,r9
 1000dd0:	100b7dc0 	call	100b7dc <__muldf3>
 1000dd4:	1009883a 	mov	r4,r2
 1000dd8:	180b883a 	mov	r5,r3
 1000ddc:	2021883a 	mov	r16,r4
 1000de0:	2823883a 	mov	r17,r5
 1000de4:	e13ffc17 	ldw	r4,-16(fp)
 1000de8:	100c8700 	call	100c870 <__floatsidf>
 1000dec:	1009883a 	mov	r4,r2
 1000df0:	180b883a 	mov	r5,r3
 1000df4:	200d883a 	mov	r6,r4
 1000df8:	280f883a 	mov	r7,r5
 1000dfc:	8009883a 	mov	r4,r16
 1000e00:	880b883a 	mov	r5,r17
 1000e04:	100ac9c0 	call	100ac9c <__divdf3>
 1000e08:	1009883a 	mov	r4,r2
 1000e0c:	180b883a 	mov	r5,r3
 1000e10:	2011883a 	mov	r8,r4
 1000e14:	2813883a 	mov	r9,r5
 1000e18:	d0a02917 	ldw	r2,-32604(gp)
 1000e1c:	d0e02a17 	ldw	r3,-32600(gp)
 1000e20:	d8c00015 	stw	r3,0(sp)
 1000e24:	100f883a 	mov	r7,r2
 1000e28:	400b883a 	mov	r5,r8
 1000e2c:	480d883a 	mov	r6,r9
 1000e30:	010040b4 	movhi	r4,258
 1000e34:	210f7504 	addi	r4,r4,15828
 1000e38:	100cf040 	call	100cf04 <printf>

//	lcdRectClear(100, 100, 200, 200, WHITE);
//	lcdDispFloatSmall(100, 100, BLACK, WHITE, fre_meas);
//	lcdDispFloatSmall(100, 130, BLACK, WHITE, clk_num);
//	lcdDispFloatSmall(100, 160, BLACK, WHITE, sig_num);
	printf("Finish measuring fre.\n");
 1000e3c:	010040b4 	movhi	r4,258
 1000e40:	210f7b04 	addi	r4,r4,15852
 1000e44:	100d0000 	call	100d000 <puts>
	return fre_meas;
 1000e48:	d0a02917 	ldw	r2,-32604(gp)
 1000e4c:	d0e02a17 	ldw	r3,-32600(gp)
 1000e50:	1009883a 	mov	r4,r2
 1000e54:	180b883a 	mov	r5,r3
}
 1000e58:	2005883a 	mov	r2,r4
 1000e5c:	2807883a 	mov	r3,r5
 1000e60:	e6fffe04 	addi	sp,fp,-8
 1000e64:	dfc00317 	ldw	ra,12(sp)
 1000e68:	df000217 	ldw	fp,8(sp)
 1000e6c:	dc400117 	ldw	r17,4(sp)
 1000e70:	dc000017 	ldw	r16,0(sp)
 1000e74:	dec00404 	addi	sp,sp,16
 1000e78:	f800283a 	ret

01000e7c <getSampclk>:

void getSampclk(float fre_now){
 1000e7c:	defffb04 	addi	sp,sp,-20
 1000e80:	dfc00415 	stw	ra,16(sp)
 1000e84:	df000315 	stw	fp,12(sp)
 1000e88:	dc000215 	stw	r16,8(sp)
 1000e8c:	df000304 	addi	fp,sp,12
 1000e90:	e13ffe15 	stw	r4,-8(fp)
	if(fre_now == 0){
 1000e94:	000b883a 	mov	r5,zero
 1000e98:	e13ffe17 	ldw	r4,-8(fp)
 1000e9c:	10098a40 	call	10098a4 <__eqsf2>
 1000ea0:	1000131e 	bne	r2,zero,1000ef0 <getSampclk+0x74>
		KW_word = pow(2,32)/400;
 1000ea4:	00802934 	movhi	r2,164
 1000ea8:	10b5c284 	addi	r2,r2,-10486
 1000eac:	d0a02415 	stw	r2,-32624(gp)
		Times =200;
 1000eb0:	00803204 	movi	r2,200
 1000eb4:	d0a02815 	stw	r2,-32608(gp)
		printf("0-------Times = %d,fre = %f,KW_word = %d\n",Times,fre_now,KW_word);
 1000eb8:	d4202817 	ldw	r16,-32608(gp)
 1000ebc:	e13ffe17 	ldw	r4,-8(fp)
 1000ec0:	100c9f40 	call	100c9f4 <__extendsfdf2>
 1000ec4:	1009883a 	mov	r4,r2
 1000ec8:	180b883a 	mov	r5,r3
 1000ecc:	d0a02417 	ldw	r2,-32624(gp)
 1000ed0:	d8800015 	stw	r2,0(sp)
 1000ed4:	200d883a 	mov	r6,r4
 1000ed8:	280f883a 	mov	r7,r5
 1000edc:	800b883a 	mov	r5,r16
 1000ee0:	010040b4 	movhi	r4,258
 1000ee4:	210f8104 	addi	r4,r4,15876
 1000ee8:	100cf040 	call	100cf04 <printf>
 1000eec:	00007106 	br	10010b4 <getSampclk+0x238>
	}
	else if(fre_now <= 50){	//1000Hz
 1000ef0:	01509234 	movhi	r5,16968
 1000ef4:	e13ffe17 	ldw	r4,-8(fp)
 1000ef8:	10099d80 	call	10099d8 <__lesf2>
 1000efc:	00801016 	blt	zero,r2,1000f40 <getSampclk+0xc4>
		KW_word = pow(2,32)/400000;
 1000f00:	008a7c44 	movi	r2,10737
 1000f04:	d0a02415 	stw	r2,-32624(gp)
		Times = (50/fre_now)*40;
 1000f08:	e17ffe17 	ldw	r5,-8(fp)
 1000f0c:	01109234 	movhi	r4,16968
 1000f10:	10094640 	call	1009464 <__divsf3>
 1000f14:	1007883a 	mov	r3,r2
 1000f18:	1805883a 	mov	r2,r3
 1000f1c:	01508834 	movhi	r5,16928
 1000f20:	1009883a 	mov	r4,r2
 1000f24:	1009aa00 	call	1009aa0 <__mulsf3>
 1000f28:	1007883a 	mov	r3,r2
 1000f2c:	1805883a 	mov	r2,r3
 1000f30:	1009883a 	mov	r4,r2
 1000f34:	100a3800 	call	100a380 <__fixsfsi>
 1000f38:	d0a02815 	stw	r2,-32608(gp)
 1000f3c:	00005d06 	br	10010b4 <getSampclk+0x238>
	}
	else if(fre_now<=500000){		//  10M
 1000f40:	01523d34 	movhi	r5,18676
 1000f44:	29490004 	addi	r5,r5,9216
 1000f48:	e13ffe17 	ldw	r4,-8(fp)
 1000f4c:	10099d80 	call	10099d8 <__lesf2>
 1000f50:	00801216 	blt	zero,r2,1000f9c <getSampclk+0x120>
		KW_word = pow(2,32)/40;
 1000f54:	008199b4 	movhi	r2,1638
 1000f58:	10999984 	addi	r2,r2,26214
 1000f5c:	d0a02415 	stw	r2,-32624(gp)
//		Times = 400;
		Times =(500000/fre_now)*40;
 1000f60:	e17ffe17 	ldw	r5,-8(fp)
 1000f64:	01123d34 	movhi	r4,18676
 1000f68:	21090004 	addi	r4,r4,9216
 1000f6c:	10094640 	call	1009464 <__divsf3>
 1000f70:	1007883a 	mov	r3,r2
 1000f74:	1805883a 	mov	r2,r3
 1000f78:	01508834 	movhi	r5,16928
 1000f7c:	1009883a 	mov	r4,r2
 1000f80:	1009aa00 	call	1009aa0 <__mulsf3>
 1000f84:	1007883a 	mov	r3,r2
 1000f88:	1805883a 	mov	r2,r3
 1000f8c:	1009883a 	mov	r4,r2
 1000f90:	100a3800 	call	100a380 <__fixsfsi>
 1000f94:	d0a02815 	stw	r2,-32608(gp)
 1000f98:	00004606 	br	10010b4 <getSampclk+0x238>
//		printf("1-------Times = %d,fre = %f,KW_word = %d\n",Times,fre_now,KW_word);
	}
	else{		//200M--p130
		KW_word = (1/(1/fre_now+0.5*pow(10,-8))*pow(2,32))/400000000;		//KW = (fre_out*pow(2,32))/400000000;
 1000f9c:	e17ffe17 	ldw	r5,-8(fp)
 1000fa0:	010fe034 	movhi	r4,16256
 1000fa4:	10094640 	call	1009464 <__divsf3>
 1000fa8:	1007883a 	mov	r3,r2
 1000fac:	1805883a 	mov	r2,r3
 1000fb0:	1009883a 	mov	r4,r2
 1000fb4:	100c9f40 	call	100c9f4 <__extendsfdf2>
 1000fb8:	1011883a 	mov	r8,r2
 1000fbc:	1813883a 	mov	r9,r3
 1000fc0:	01b88c74 	movhi	r6,57905
 1000fc4:	31a30e84 	addi	r6,r6,-29638
 1000fc8:	01cf8d74 	movhi	r7,15925
 1000fcc:	39de6384 	addi	r7,r7,31118
 1000fd0:	4009883a 	mov	r4,r8
 1000fd4:	480b883a 	mov	r5,r9
 1000fd8:	100a3f00 	call	100a3f0 <__adddf3>
 1000fdc:	1009883a 	mov	r4,r2
 1000fe0:	180b883a 	mov	r5,r3
 1000fe4:	2005883a 	mov	r2,r4
 1000fe8:	2807883a 	mov	r3,r5
 1000fec:	100d883a 	mov	r6,r2
 1000ff0:	180f883a 	mov	r7,r3
 1000ff4:	0009883a 	mov	r4,zero
 1000ff8:	014ffc34 	movhi	r5,16368
 1000ffc:	100ac9c0 	call	100ac9c <__divdf3>
 1001000:	1009883a 	mov	r4,r2
 1001004:	180b883a 	mov	r5,r3
 1001008:	2005883a 	mov	r2,r4
 100100c:	2807883a 	mov	r3,r5
 1001010:	000d883a 	mov	r6,zero
 1001014:	01d07c34 	movhi	r7,16880
 1001018:	1009883a 	mov	r4,r2
 100101c:	180b883a 	mov	r5,r3
 1001020:	100b7dc0 	call	100b7dc <__muldf3>
 1001024:	1009883a 	mov	r4,r2
 1001028:	180b883a 	mov	r5,r3
 100102c:	2005883a 	mov	r2,r4
 1001030:	2807883a 	mov	r3,r5
 1001034:	000d883a 	mov	r6,zero
 1001038:	01d06e34 	movhi	r7,16824
 100103c:	39f5e104 	addi	r7,r7,-10364
 1001040:	1009883a 	mov	r4,r2
 1001044:	180b883a 	mov	r5,r3
 1001048:	100ac9c0 	call	100ac9c <__divdf3>
 100104c:	1009883a 	mov	r4,r2
 1001050:	180b883a 	mov	r5,r3
 1001054:	2005883a 	mov	r2,r4
 1001058:	2807883a 	mov	r3,r5
 100105c:	1009883a 	mov	r4,r2
 1001060:	180b883a 	mov	r5,r3
 1001064:	100c7f00 	call	100c7f0 <__fixdfsi>
 1001068:	d0a02415 	stw	r2,-32624(gp)
		Times = 4*pow(10,8)/fre_now;
 100106c:	e13ffe17 	ldw	r4,-8(fp)
 1001070:	100c9f40 	call	100c9f4 <__extendsfdf2>
 1001074:	1009883a 	mov	r4,r2
 1001078:	180b883a 	mov	r5,r3
 100107c:	200d883a 	mov	r6,r4
 1001080:	280f883a 	mov	r7,r5
 1001084:	0009883a 	mov	r4,zero
 1001088:	01506e34 	movhi	r5,16824
 100108c:	2975e104 	addi	r5,r5,-10364
 1001090:	100ac9c0 	call	100ac9c <__divdf3>
 1001094:	1009883a 	mov	r4,r2
 1001098:	180b883a 	mov	r5,r3
 100109c:	2005883a 	mov	r2,r4
 10010a0:	2807883a 	mov	r3,r5
 10010a4:	1009883a 	mov	r4,r2
 10010a8:	180b883a 	mov	r5,r3
 10010ac:	100c7f00 	call	100c7f0 <__fixdfsi>
 10010b0:	d0a02815 	stw	r2,-32608(gp)
//		printf("2-------Times = %d,fre = %f,KW_word = %d\n",Times,fre_now,KW_word);
	}

	IOWR(CLK_SAMPLE_KW_BASE, 0, KW_word);
 10010b4:	d0e02417 	ldw	r3,-32624(gp)
 10010b8:	00801034 	movhi	r2,64
 10010bc:	10842c04 	addi	r2,r2,4272
 10010c0:	10c00035 	stwio	r3,0(r2)
	IOWR(SAMPLE_TIME_BASE, 0, Times);
 10010c4:	d0e02817 	ldw	r3,-32608(gp)
 10010c8:	00801034 	movhi	r2,64
 10010cc:	10842804 	addi	r2,r2,4256
 10010d0:	10c00035 	stwio	r3,0(r2)
}
 10010d4:	0001883a 	nop
 10010d8:	e6ffff04 	addi	sp,fp,-4
 10010dc:	dfc00217 	ldw	ra,8(sp)
 10010e0:	df000117 	ldw	fp,4(sp)
 10010e4:	dc000017 	ldw	r16,0(sp)
 10010e8:	dec00304 	addi	sp,sp,12
 10010ec:	f800283a 	ret

010010f0 <disFre>:

void disFre(double fre_now){
 10010f0:	defff804 	addi	sp,sp,-32
 10010f4:	dfc00715 	stw	ra,28(sp)
 10010f8:	df000615 	stw	fp,24(sp)
 10010fc:	df000604 	addi	fp,sp,24
 1001100:	e13ffe15 	stw	r4,-8(fp)
 1001104:	e17fff15 	stw	r5,-4(fp)
	double fre_dis;
	int liangji = 0;	//0-Hz;1-kHz;2-MHz
 1001108:	e03ffd15 	stw	zero,-12(fp)
	if(fre_now < 1000){
 100110c:	000d883a 	mov	r6,zero
 1001110:	01d023f4 	movhi	r7,16527
 1001114:	39d00004 	addi	r7,r7,16384
 1001118:	e13ffe17 	ldw	r4,-8(fp)
 100111c:	e17fff17 	ldw	r5,-4(fp)
 1001120:	100b6e80 	call	100b6e8 <__ledf2>
 1001124:	1000060e 	bge	r2,zero,1001140 <disFre+0x50>
		fre_dis = fre_now;
 1001128:	e0bffe17 	ldw	r2,-8(fp)
 100112c:	e0bffb15 	stw	r2,-20(fp)
 1001130:	e0bfff17 	ldw	r2,-4(fp)
 1001134:	e0bffc15 	stw	r2,-16(fp)
		liangji = 0;
 1001138:	e03ffd15 	stw	zero,-12(fp)
 100113c:	00002006 	br	10011c0 <disFre+0xd0>
	}
	else if(fre_now < 1000000){
 1001140:	000d883a 	mov	r6,zero
 1001144:	01d04bf4 	movhi	r7,16687
 1001148:	39e12004 	addi	r7,r7,-31616
 100114c:	e13ffe17 	ldw	r4,-8(fp)
 1001150:	e17fff17 	ldw	r5,-4(fp)
 1001154:	100b6e80 	call	100b6e8 <__ledf2>
 1001158:	10000d0e 	bge	r2,zero,1001190 <disFre+0xa0>
		fre_dis = fre_now/1000;
 100115c:	000d883a 	mov	r6,zero
 1001160:	01d023f4 	movhi	r7,16527
 1001164:	39d00004 	addi	r7,r7,16384
 1001168:	e13ffe17 	ldw	r4,-8(fp)
 100116c:	e17fff17 	ldw	r5,-4(fp)
 1001170:	100ac9c0 	call	100ac9c <__divdf3>
 1001174:	1009883a 	mov	r4,r2
 1001178:	180b883a 	mov	r5,r3
 100117c:	e13ffb15 	stw	r4,-20(fp)
 1001180:	e17ffc15 	stw	r5,-16(fp)
		liangji = 1;
 1001184:	00800044 	movi	r2,1
 1001188:	e0bffd15 	stw	r2,-12(fp)
 100118c:	00000c06 	br	10011c0 <disFre+0xd0>
	}
	else{
		fre_dis = fre_now/1000000;
 1001190:	000d883a 	mov	r6,zero
 1001194:	01d04bf4 	movhi	r7,16687
 1001198:	39e12004 	addi	r7,r7,-31616
 100119c:	e13ffe17 	ldw	r4,-8(fp)
 10011a0:	e17fff17 	ldw	r5,-4(fp)
 10011a4:	100ac9c0 	call	100ac9c <__divdf3>
 10011a8:	1009883a 	mov	r4,r2
 10011ac:	180b883a 	mov	r5,r3
 10011b0:	e13ffb15 	stw	r4,-20(fp)
 10011b4:	e17ffc15 	stw	r5,-16(fp)
		liangji = 2;
 10011b8:	00800084 	movi	r2,2
 10011bc:	e0bffd15 	stw	r2,-12(fp)
	}

	lcdRectClear(270, 378, 350, 395, WHITE);
 10011c0:	00bfffd4 	movui	r2,65535
 10011c4:	d8800015 	stw	r2,0(sp)
 10011c8:	01c062c4 	movi	r7,395
 10011cc:	01805784 	movi	r6,350
 10011d0:	01405e84 	movi	r5,378
 10011d4:	01004384 	movi	r4,270
 10011d8:	100328c0 	call	100328c <lcdRectClear>
	lcdDispFloatSmall_4(270, 378, BLACK, WHITE, fre_dis);
 10011dc:	e13ffb17 	ldw	r4,-20(fp)
 10011e0:	e17ffc17 	ldw	r5,-16(fp)
 10011e4:	100cb040 	call	100cb04 <__truncdfsf2>
 10011e8:	1007883a 	mov	r3,r2
 10011ec:	d8c00015 	stw	r3,0(sp)
 10011f0:	01ffffd4 	movui	r7,65535
 10011f4:	000d883a 	mov	r6,zero
 10011f8:	01405e84 	movi	r5,378
 10011fc:	01004384 	movi	r4,270
 1001200:	100460c0 	call	100460c <lcdDispFloatSmall_4>
	switch(liangji){
 1001204:	e0bffd17 	ldw	r2,-12(fp)
 1001208:	10c00060 	cmpeqi	r3,r2,1
 100120c:	18000c1e 	bne	r3,zero,1001240 <disFre+0x150>
 1001210:	10c000a0 	cmpeqi	r3,r2,2
 1001214:	1800131e 	bne	r3,zero,1001264 <disFre+0x174>
 1001218:	10001b1e 	bne	r2,zero,1001288 <disFre+0x198>
	case 0: lcdDispStringSmall(318, 378, BLACK, WHITE, "Hz");
 100121c:	008040b4 	movhi	r2,258
 1001220:	108f8c04 	addi	r2,r2,15920
 1001224:	d8800015 	stw	r2,0(sp)
 1001228:	01ffffd4 	movui	r7,65535
 100122c:	000d883a 	mov	r6,zero
 1001230:	01405e84 	movi	r5,378
 1001234:	01004f84 	movi	r4,318
 1001238:	10042500 	call	1004250 <lcdDispStringSmall>
		break;
 100123c:	00001b06 	br	10012ac <disFre+0x1bc>
	case 1: lcdDispStringSmall(318, 378, BLACK, WHITE, "kHz");
 1001240:	008040b4 	movhi	r2,258
 1001244:	108f8d04 	addi	r2,r2,15924
 1001248:	d8800015 	stw	r2,0(sp)
 100124c:	01ffffd4 	movui	r7,65535
 1001250:	000d883a 	mov	r6,zero
 1001254:	01405e84 	movi	r5,378
 1001258:	01004f84 	movi	r4,318
 100125c:	10042500 	call	1004250 <lcdDispStringSmall>
		break;
 1001260:	00001206 	br	10012ac <disFre+0x1bc>
	case 2: lcdDispStringSmall(318, 378, BLACK, WHITE, "MHz");
 1001264:	008040b4 	movhi	r2,258
 1001268:	108f8e04 	addi	r2,r2,15928
 100126c:	d8800015 	stw	r2,0(sp)
 1001270:	01ffffd4 	movui	r7,65535
 1001274:	000d883a 	mov	r6,zero
 1001278:	01405e84 	movi	r5,378
 100127c:	01004f84 	movi	r4,318
 1001280:	10042500 	call	1004250 <lcdDispStringSmall>
		break;
 1001284:	00000906 	br	10012ac <disFre+0x1bc>
	default: lcdDispStringSmall(318, 378, BLACK, WHITE, "Hz");
 1001288:	008040b4 	movhi	r2,258
 100128c:	108f8c04 	addi	r2,r2,15920
 1001290:	d8800015 	stw	r2,0(sp)
 1001294:	01ffffd4 	movui	r7,65535
 1001298:	000d883a 	mov	r6,zero
 100129c:	01405e84 	movi	r5,378
 10012a0:	01004f84 	movi	r4,318
 10012a4:	10042500 	call	1004250 <lcdDispStringSmall>
		break;
 10012a8:	0001883a 	nop
	}
}
 10012ac:	0001883a 	nop
 10012b0:	e037883a 	mov	sp,fp
 10012b4:	dfc00117 	ldw	ra,4(sp)
 10012b8:	df000017 	ldw	fp,0(sp)
 10012bc:	dec00204 	addi	sp,sp,8
 10012c0:	f800283a 	ret

010012c4 <fifo_sto>:
*	
*	
****************************************************************/

//Wave form Storage
void fifo_sto(void){
 10012c4:	defffa04 	addi	sp,sp,-24
 10012c8:	dfc00515 	stw	ra,20(sp)
 10012cc:	df000415 	stw	fp,16(sp)
 10012d0:	df000404 	addi	fp,sp,16
	clk_rd = ~clk_rd;
 10012d4:	d0a02717 	ldw	r2,-32612(gp)
 10012d8:	0084303a 	nor	r2,zero,r2
 10012dc:	d0a02715 	stw	r2,-32612(gp)
	IOWR(CLK_RD_BASE,0,clk_rd);//900k
 10012e0:	d0e02717 	ldw	r3,-32612(gp)
 10012e4:	00801034 	movhi	r2,64
 10012e8:	10840c04 	addi	r2,r2,4144
 10012ec:	10c00035 	stwio	r3,0(r2)
	for(int i = 0; i < 100000; i++);
 10012f0:	e03ffc15 	stw	zero,-16(fp)
 10012f4:	00000306 	br	1001304 <fifo_sto+0x40>
 10012f8:	e0bffc17 	ldw	r2,-16(fp)
 10012fc:	10800044 	addi	r2,r2,1
 1001300:	e0bffc15 	stw	r2,-16(fp)
 1001304:	e0fffc17 	ldw	r3,-16(fp)
 1001308:	008000b4 	movhi	r2,2
 100130c:	10a1a7c4 	addi	r2,r2,-31073
 1001310:	10fff90e 	bge	r2,r3,10012f8 <__alt_data_end+0xff8012f8>
	if(!storage_done)
 1001314:	d0a02217 	ldw	r2,-32632(gp)
 1001318:	10002b1e 	bne	r2,zero,10013c8 <fifo_sto+0x104>
	{
		if(signal_num < 4097)
 100131c:	d0a02017 	ldw	r2,-32640(gp)
 1001320:	10840048 	cmpgei	r2,r2,4097
 1001324:	1000211e 	bne	r2,zero,10013ac <fifo_sto+0xe8>
		{
			(signal_num)?1:(IOWR(WRD_FLAG_BASE,0,1));
 1001328:	d0a02017 	ldw	r2,-32640(gp)
 100132c:	1000041e 	bne	r2,zero,1001340 <fifo_sto+0x7c>
 1001330:	00c00044 	movi	r3,1
 1001334:	00801034 	movhi	r2,64
 1001338:	10841004 	addi	r2,r2,4160
 100133c:	10c00035 	stwio	r3,0(r2)
			sig1[signal_num] = IORD(FIFO_OUT_BASE,0);
 1001340:	d0e02017 	ldw	r3,-32640(gp)
 1001344:	00801034 	movhi	r2,64
 1001348:	10841404 	addi	r2,r2,4176
 100134c:	11000037 	ldwio	r4,0(r2)
 1001350:	008040f4 	movhi	r2,259
 1001354:	10aa0604 	addi	r2,r2,-22504
 1001358:	18c7883a 	add	r3,r3,r3
 100135c:	18c7883a 	add	r3,r3,r3
 1001360:	10c5883a 	add	r2,r2,r3
 1001364:	11000015 	stw	r4,0(r2)
			signal_num++;
 1001368:	d0a02017 	ldw	r2,-32640(gp)
 100136c:	10800044 	addi	r2,r2,1
 1001370:	d0a02015 	stw	r2,-32640(gp)
			printf("signal[%d] = %d\n",signal_num,sig1[signal_num]);
 1001374:	d1202017 	ldw	r4,-32640(gp)
 1001378:	d0e02017 	ldw	r3,-32640(gp)
 100137c:	008040f4 	movhi	r2,259
 1001380:	10aa0604 	addi	r2,r2,-22504
 1001384:	18c7883a 	add	r3,r3,r3
 1001388:	18c7883a 	add	r3,r3,r3
 100138c:	10c5883a 	add	r2,r2,r3
 1001390:	10800017 	ldw	r2,0(r2)
 1001394:	100d883a 	mov	r6,r2
 1001398:	200b883a 	mov	r5,r4
 100139c:	010040b4 	movhi	r4,258
 10013a0:	210f8f04 	addi	r4,r4,15932
 10013a4:	100cf040 	call	100cf04 <printf>
 10013a8:	00002606 	br	1001444 <fifo_sto+0x180>
		}
		else
		{
			signal_num = 0;
 10013ac:	d0202015 	stw	zero,-32640(gp)
			storage_done = 1;
 10013b0:	00800044 	movi	r2,1
 10013b4:	d0a02215 	stw	r2,-32632(gp)
			printf("Storage over!");
 10013b8:	010040b4 	movhi	r4,258
 10013bc:	210f9404 	addi	r4,r4,15952
 10013c0:	100cf040 	call	100cf04 <printf>
 10013c4:	00001f06 	br	1001444 <fifo_sto+0x180>
		}
	}
	else
	{
		IOWR(WRD_FLAG_BASE,0,0);
 10013c8:	0007883a 	mov	r3,zero
 10013cc:	00801034 	movhi	r2,64
 10013d0:	10841004 	addi	r2,r2,4160
 10013d4:	10c00035 	stwio	r3,0(r2)
		for(int num = 0;num<8193;num++)
 10013d8:	e03ffd15 	stw	zero,-12(fp)
 10013dc:	00001606 	br	1001438 <fifo_sto+0x174>
		{
			(num == 8192)?1:(  storage_done = 0 );
 10013e0:	e0bffd17 	ldw	r2,-12(fp)
 10013e4:	10880020 	cmpeqi	r2,r2,8192
 10013e8:	1000011e 	bne	r2,zero,10013f0 <fifo_sto+0x12c>
 10013ec:	d0202215 	stw	zero,-32632(gp)
			clk_rd = ~clk_rd;
 10013f0:	d0a02717 	ldw	r2,-32612(gp)
 10013f4:	0084303a 	nor	r2,zero,r2
 10013f8:	d0a02715 	stw	r2,-32612(gp)
			IOWR(CLK_RD_BASE,0,clk_rd);
 10013fc:	d0e02717 	ldw	r3,-32612(gp)
 1001400:	00801034 	movhi	r2,64
 1001404:	10840c04 	addi	r2,r2,4144
 1001408:	10c00035 	stwio	r3,0(r2)
			for(int y = 0;y<10;y++);
 100140c:	e03ffe15 	stw	zero,-8(fp)
 1001410:	00000306 	br	1001420 <fifo_sto+0x15c>
 1001414:	e0bffe17 	ldw	r2,-8(fp)
 1001418:	10800044 	addi	r2,r2,1
 100141c:	e0bffe15 	stw	r2,-8(fp)
 1001420:	e0bffe17 	ldw	r2,-8(fp)
 1001424:	10800290 	cmplti	r2,r2,10
 1001428:	103ffa1e 	bne	r2,zero,1001414 <__alt_data_end+0xff801414>
		}
	}
	else
	{
		IOWR(WRD_FLAG_BASE,0,0);
		for(int num = 0;num<8193;num++)
 100142c:	e0bffd17 	ldw	r2,-12(fp)
 1001430:	10800044 	addi	r2,r2,1
 1001434:	e0bffd15 	stw	r2,-12(fp)
 1001438:	e0bffd17 	ldw	r2,-12(fp)
 100143c:	10880050 	cmplti	r2,r2,8193
 1001440:	103fe71e 	bne	r2,zero,10013e0 <__alt_data_end+0xff8013e0>
			clk_rd = ~clk_rd;
			IOWR(CLK_RD_BASE,0,clk_rd);
			for(int y = 0;y<10;y++);
		}
	}
	clk_rd = ~clk_rd;
 1001444:	d0a02717 	ldw	r2,-32612(gp)
 1001448:	0084303a 	nor	r2,zero,r2
 100144c:	d0a02715 	stw	r2,-32612(gp)
	IOWR(CLK_RD_BASE,0,clk_rd);
 1001450:	d0e02717 	ldw	r3,-32612(gp)
 1001454:	00801034 	movhi	r2,64
 1001458:	10840c04 	addi	r2,r2,4144
 100145c:	10c00035 	stwio	r3,0(r2)
	for(int i = 0;i < 20;i++);
 1001460:	e03fff15 	stw	zero,-4(fp)
 1001464:	00000306 	br	1001474 <fifo_sto+0x1b0>
 1001468:	e0bfff17 	ldw	r2,-4(fp)
 100146c:	10800044 	addi	r2,r2,1
 1001470:	e0bfff15 	stw	r2,-4(fp)
 1001474:	e0bfff17 	ldw	r2,-4(fp)
 1001478:	10800510 	cmplti	r2,r2,20
 100147c:	103ffa1e 	bne	r2,zero,1001468 <__alt_data_end+0xff801468>
}
 1001480:	0001883a 	nop
 1001484:	e037883a 	mov	sp,fp
 1001488:	dfc00117 	ldw	ra,4(sp)
 100148c:	df000017 	ldw	fp,0(sp)
 1001490:	dec00204 	addi	sp,sp,8
 1001494:	f800283a 	ret

01001498 <Paint_w>:

void Paint_w(int ww,float fre_now){
 1001498:	defff804 	addi	sp,sp,-32
 100149c:	dfc00715 	stw	ra,28(sp)
 10014a0:	df000615 	stw	fp,24(sp)
 10014a4:	dd400515 	stw	r21,20(sp)
 10014a8:	dd000415 	stw	r20,16(sp)
 10014ac:	dcc00315 	stw	r19,12(sp)
 10014b0:	dc800215 	stw	r18,8(sp)
 10014b4:	dc400115 	stw	r17,4(sp)
 10014b8:	dc000015 	stw	r16,0(sp)
 10014bc:	df000604 	addi	fp,sp,24
 10014c0:	023ffff4 	movhi	r8,65535
 10014c4:	421ff204 	addi	r8,r8,32712
 10014c8:	da37883a 	add	sp,sp,r8
 10014cc:	00a00814 	movui	r2,32800
 10014d0:	00fffff4 	movhi	r3,65535
 10014d4:	18dfee04 	addi	r3,r3,32696
 10014d8:	1f07883a 	add	r3,r3,fp
 10014dc:	1885883a 	add	r2,r3,r2
 10014e0:	11000015 	stw	r4,0(r2)
 10014e4:	00a00914 	movui	r2,32804
 10014e8:	013ffff4 	movhi	r4,65535
 10014ec:	211fee04 	addi	r4,r4,32696
 10014f0:	2709883a 	add	r4,r4,fp
 10014f4:	2085883a 	add	r2,r4,r2
 10014f8:	11400015 	stw	r5,0(r2)
	//Times/2	//10*xlable*fre
	float xtrans[4096], ytrans[4096];
	int dr_point_num;		//
	int dr_sig_num;		//

	if(x_mod == 0){	//100ns
 10014fc:	d0a00617 	ldw	r2,-32744(gp)
 1001500:	1000531e 	bne	r2,zero,1001650 <Paint_w+0x1b8>
		dr_sig_num = fre_now*pow(10,-6);
 1001504:	00a00914 	movui	r2,32804
 1001508:	017ffff4 	movhi	r5,65535
 100150c:	295fee04 	addi	r5,r5,32696
 1001510:	2f0b883a 	add	r5,r5,fp
 1001514:	2885883a 	add	r2,r5,r2
 1001518:	11000017 	ldw	r4,0(r2)
 100151c:	100c9f40 	call	100c9f4 <__extendsfdf2>
 1001520:	1011883a 	mov	r8,r2
 1001524:	1813883a 	mov	r9,r3
 1001528:	01a82db4 	movhi	r6,41142
 100152c:	31bb6344 	addi	r6,r6,-4723
 1001530:	01cfac74 	movhi	r7,16049
 1001534:	39f1bdc4 	addi	r7,r7,-14601
 1001538:	4009883a 	mov	r4,r8
 100153c:	480b883a 	mov	r5,r9
 1001540:	100b7dc0 	call	100b7dc <__muldf3>
 1001544:	1009883a 	mov	r4,r2
 1001548:	180b883a 	mov	r5,r3
 100154c:	2005883a 	mov	r2,r4
 1001550:	2807883a 	mov	r3,r5
 1001554:	1009883a 	mov	r4,r2
 1001558:	180b883a 	mov	r5,r3
 100155c:	100c7f00 	call	100c7f0 <__fixdfsi>
 1001560:	00fffff4 	movhi	r3,65535
 1001564:	18dfef04 	addi	r3,r3,32700
 1001568:	1f07883a 	add	r3,r3,fp
 100156c:	18800015 	stw	r2,0(r3)
		if(fre_now <= 50)	//	dr_sig_num = fre_now*Times*pow(10,-6)*0.5;
 1001570:	00a00914 	movui	r2,32804
 1001574:	013ffff4 	movhi	r4,65535
 1001578:	211fee04 	addi	r4,r4,32696
 100157c:	2709883a 	add	r4,r4,fp
 1001580:	2085883a 	add	r2,r4,r2
 1001584:	01509234 	movhi	r5,16968
 1001588:	11000017 	ldw	r4,0(r2)
 100158c:	10099d80 	call	10099d8 <__lesf2>
 1001590:	00800616 	blt	zero,r2,10015ac <Paint_w+0x114>
			dr_point_num = 2;//fre_now*Times*pow(10,-6)*0.5=2*pow(10,6)*pow(10,-6)*0.5
 1001594:	00800084 	movi	r2,2
 1001598:	017ffff4 	movhi	r5,65535
 100159c:	295fee04 	addi	r5,r5,32696
 10015a0:	2f0b883a 	add	r5,r5,fp
 10015a4:	28800015 	stw	r2,0(r5)
 10015a8:	0000b106 	br	1001870 <Paint_w+0x3d8>
		else if(fre_now > 50 && fre_now <= 500000)
 10015ac:	00a00914 	movui	r2,32804
 10015b0:	00fffff4 	movhi	r3,65535
 10015b4:	18dfee04 	addi	r3,r3,32696
 10015b8:	1f07883a 	add	r3,r3,fp
 10015bc:	1885883a 	add	r2,r3,r2
 10015c0:	01509234 	movhi	r5,16968
 10015c4:	11000017 	ldw	r4,0(r2)
 10015c8:	100991c0 	call	100991c <__gesf2>
 10015cc:	0080100e 	bge	zero,r2,1001610 <Paint_w+0x178>
 10015d0:	00a00914 	movui	r2,32804
 10015d4:	013ffff4 	movhi	r4,65535
 10015d8:	211fee04 	addi	r4,r4,32696
 10015dc:	2709883a 	add	r4,r4,fp
 10015e0:	2085883a 	add	r2,r4,r2
 10015e4:	01523d34 	movhi	r5,18676
 10015e8:	29490004 	addi	r5,r5,9216
 10015ec:	11000017 	ldw	r4,0(r2)
 10015f0:	10099d80 	call	10099d8 <__lesf2>
 10015f4:	00800616 	blt	zero,r2,1001610 <Paint_w+0x178>
			dr_point_num = 10;
 10015f8:	00800284 	movi	r2,10
 10015fc:	017ffff4 	movhi	r5,65535
 1001600:	295fee04 	addi	r5,r5,32696
 1001604:	2f0b883a 	add	r5,r5,fp
 1001608:	28800015 	stw	r2,0(r5)
 100160c:	00009806 	br	1001870 <Paint_w+0x3d8>
		else if(fre_now > 500000)
 1001610:	00a00914 	movui	r2,32804
 1001614:	00fffff4 	movhi	r3,65535
 1001618:	18dfee04 	addi	r3,r3,32696
 100161c:	1f07883a 	add	r3,r3,fp
 1001620:	1885883a 	add	r2,r3,r2
 1001624:	01523d34 	movhi	r5,18676
 1001628:	29490004 	addi	r5,r5,9216
 100162c:	11000017 	ldw	r4,0(r2)
 1001630:	100991c0 	call	100991c <__gesf2>
 1001634:	00808e0e 	bge	zero,r2,1001870 <Paint_w+0x3d8>
			dr_point_num = 200;	//	dr_sig_num = clk_sample*xlable*10
 1001638:	00803204 	movi	r2,200
 100163c:	013ffff4 	movhi	r4,65535
 1001640:	211fee04 	addi	r4,r4,32696
 1001644:	2709883a 	add	r4,r4,fp
 1001648:	20800015 	stw	r2,0(r4)
 100164c:	00008806 	br	1001870 <Paint_w+0x3d8>
	}
	else if(x_mod == 1){	//2us
 1001650:	d0a00617 	ldw	r2,-32744(gp)
 1001654:	10800058 	cmpnei	r2,r2,1
 1001658:	1000591e 	bne	r2,zero,10017c0 <Paint_w+0x328>
		dr_sig_num = fre_now*2*pow(10,-5);
 100165c:	00a00914 	movui	r2,32804
 1001660:	017ffff4 	movhi	r5,65535
 1001664:	295fee04 	addi	r5,r5,32696
 1001668:	2f0b883a 	add	r5,r5,fp
 100166c:	2887883a 	add	r3,r5,r2
 1001670:	18800017 	ldw	r2,0(r3)
 1001674:	100b883a 	mov	r5,r2
 1001678:	1009883a 	mov	r4,r2
 100167c:	1008f9c0 	call	1008f9c <__addsf3>
 1001680:	1007883a 	mov	r3,r2
 1001684:	1805883a 	mov	r2,r3
 1001688:	1009883a 	mov	r4,r2
 100168c:	100c9f40 	call	100c9f4 <__extendsfdf2>
 1001690:	1011883a 	mov	r8,r2
 1001694:	1813883a 	mov	r9,r3
 1001698:	01a238f4 	movhi	r6,35043
 100169c:	319a3c44 	addi	r6,r6,26865
 10016a0:	01cfb974 	movhi	r7,16101
 10016a4:	39fe2d44 	addi	r7,r7,-1867
 10016a8:	4009883a 	mov	r4,r8
 10016ac:	480b883a 	mov	r5,r9
 10016b0:	100b7dc0 	call	100b7dc <__muldf3>
 10016b4:	1009883a 	mov	r4,r2
 10016b8:	180b883a 	mov	r5,r3
 10016bc:	2005883a 	mov	r2,r4
 10016c0:	2807883a 	mov	r3,r5
 10016c4:	1009883a 	mov	r4,r2
 10016c8:	180b883a 	mov	r5,r3
 10016cc:	100c7f00 	call	100c7f0 <__fixdfsi>
 10016d0:	00fffff4 	movhi	r3,65535
 10016d4:	18dfef04 	addi	r3,r3,32700
 10016d8:	1f07883a 	add	r3,r3,fp
 10016dc:	18800015 	stw	r2,0(r3)
		if(fre_now <= 50)	//	dr_sig_num = fre_now*Times*pow(10,-5);
 10016e0:	00a00914 	movui	r2,32804
 10016e4:	013ffff4 	movhi	r4,65535
 10016e8:	211fee04 	addi	r4,r4,32696
 10016ec:	2709883a 	add	r4,r4,fp
 10016f0:	2085883a 	add	r2,r4,r2
 10016f4:	01509234 	movhi	r5,16968
 10016f8:	11000017 	ldw	r4,0(r2)
 10016fc:	10099d80 	call	10099d8 <__lesf2>
 1001700:	00800616 	blt	zero,r2,100171c <Paint_w+0x284>
			dr_point_num = 2;	//	1
 1001704:	00800084 	movi	r2,2
 1001708:	017ffff4 	movhi	r5,65535
 100170c:	295fee04 	addi	r5,r5,32696
 1001710:	2f0b883a 	add	r5,r5,fp
 1001714:	28800015 	stw	r2,0(r5)
 1001718:	00005506 	br	1001870 <Paint_w+0x3d8>
		else if(fre_now > 50 && fre_now <= 500000)
 100171c:	00a00914 	movui	r2,32804
 1001720:	00fffff4 	movhi	r3,65535
 1001724:	18dfee04 	addi	r3,r3,32696
 1001728:	1f07883a 	add	r3,r3,fp
 100172c:	1885883a 	add	r2,r3,r2
 1001730:	01509234 	movhi	r5,16968
 1001734:	11000017 	ldw	r4,0(r2)
 1001738:	100991c0 	call	100991c <__gesf2>
 100173c:	0080100e 	bge	zero,r2,1001780 <Paint_w+0x2e8>
 1001740:	00a00914 	movui	r2,32804
 1001744:	013ffff4 	movhi	r4,65535
 1001748:	211fee04 	addi	r4,r4,32696
 100174c:	2709883a 	add	r4,r4,fp
 1001750:	2085883a 	add	r2,r4,r2
 1001754:	01523d34 	movhi	r5,18676
 1001758:	29490004 	addi	r5,r5,9216
 100175c:	11000017 	ldw	r4,0(r2)
 1001760:	10099d80 	call	10099d8 <__lesf2>
 1001764:	00800616 	blt	zero,r2,1001780 <Paint_w+0x2e8>
			dr_point_num = 200;
 1001768:	00803204 	movi	r2,200
 100176c:	017ffff4 	movhi	r5,65535
 1001770:	295fee04 	addi	r5,r5,32696
 1001774:	2f0b883a 	add	r5,r5,fp
 1001778:	28800015 	stw	r2,0(r5)
 100177c:	00003c06 	br	1001870 <Paint_w+0x3d8>
		else if(fre_now > 500000)
 1001780:	00a00914 	movui	r2,32804
 1001784:	00fffff4 	movhi	r3,65535
 1001788:	18dfee04 	addi	r3,r3,32696
 100178c:	1f07883a 	add	r3,r3,fp
 1001790:	1885883a 	add	r2,r3,r2
 1001794:	01523d34 	movhi	r5,18676
 1001798:	29490004 	addi	r5,r5,9216
 100179c:	11000017 	ldw	r4,0(r2)
 10017a0:	100991c0 	call	100991c <__gesf2>
 10017a4:	0080320e 	bge	zero,r2,1001870 <Paint_w+0x3d8>
			dr_point_num = 4000;
 10017a8:	0083e804 	movi	r2,4000
 10017ac:	013ffff4 	movhi	r4,65535
 10017b0:	211fee04 	addi	r4,r4,32696
 10017b4:	2709883a 	add	r4,r4,fp
 10017b8:	20800015 	stw	r2,0(r4)
 10017bc:	00002c06 	br	1001870 <Paint_w+0x3d8>
	}
	else if(x_mod == 2){	//20ms
 10017c0:	d0a00617 	ldw	r2,-32744(gp)
 10017c4:	10800098 	cmpnei	r2,r2,2
 10017c8:	1000291e 	bne	r2,zero,1001870 <Paint_w+0x3d8>
		dr_sig_num = fre_now*0.02;
 10017cc:	00a00914 	movui	r2,32804
 10017d0:	017ffff4 	movhi	r5,65535
 10017d4:	295fee04 	addi	r5,r5,32696
 10017d8:	2f0b883a 	add	r5,r5,fp
 10017dc:	2885883a 	add	r2,r5,r2
 10017e0:	11000017 	ldw	r4,0(r2)
 10017e4:	100c9f40 	call	100c9f4 <__extendsfdf2>
 10017e8:	1011883a 	mov	r8,r2
 10017ec:	1813883a 	mov	r9,r3
 10017f0:	0191ebb4 	movhi	r6,18350
 10017f4:	31851ec4 	addi	r6,r6,5243
 10017f8:	01cfe534 	movhi	r7,16276
 10017fc:	39deb844 	addi	r7,r7,31457
 1001800:	4009883a 	mov	r4,r8
 1001804:	480b883a 	mov	r5,r9
 1001808:	100b7dc0 	call	100b7dc <__muldf3>
 100180c:	1009883a 	mov	r4,r2
 1001810:	180b883a 	mov	r5,r3
 1001814:	2005883a 	mov	r2,r4
 1001818:	2807883a 	mov	r3,r5
 100181c:	1009883a 	mov	r4,r2
 1001820:	180b883a 	mov	r5,r3
 1001824:	100c7f00 	call	100c7f0 <__fixdfsi>
 1001828:	00fffff4 	movhi	r3,65535
 100182c:	18dfef04 	addi	r3,r3,32700
 1001830:	1f07883a 	add	r3,r3,fp
 1001834:	18800015 	stw	r2,0(r3)
		if(fre_now <= 50){
 1001838:	00a00914 	movui	r2,32804
 100183c:	013ffff4 	movhi	r4,65535
 1001840:	211fee04 	addi	r4,r4,32696
 1001844:	2709883a 	add	r4,r4,fp
 1001848:	2085883a 	add	r2,r4,r2
 100184c:	01509234 	movhi	r5,16968
 1001850:	11000017 	ldw	r4,0(r2)
 1001854:	10099d80 	call	10099d8 <__lesf2>
 1001858:	00800516 	blt	zero,r2,1001870 <Paint_w+0x3d8>
			dr_point_num = 200;
 100185c:	00803204 	movi	r2,200
 1001860:	017ffff4 	movhi	r5,65535
 1001864:	295fee04 	addi	r5,r5,32696
 1001868:	2f0b883a 	add	r5,r5,fp
 100186c:	28800015 	stw	r2,0(r5)
//			dr_point_num = 2000000;
//		else if(fre_now > 500000)
//			dr_point_num = 40000000;
	}

	for(int i = 0;i < 4097; i++){
 1001870:	00bffff4 	movhi	r2,65535
 1001874:	109ff004 	addi	r2,r2,32704
 1001878:	1705883a 	add	r2,r2,fp
 100187c:	10000015 	stw	zero,0(r2)
 1001880:	00002d06 	br	1001938 <Paint_w+0x4a0>
		sig1_real[i] = getVpp(sig1[i]-rdac_zero);
 1001884:	008040f4 	movhi	r2,259
 1001888:	10aa0604 	addi	r2,r2,-22504
 100188c:	013ffff4 	movhi	r4,65535
 1001890:	211ff004 	addi	r4,r4,32704
 1001894:	2709883a 	add	r4,r4,fp
 1001898:	20c00017 	ldw	r3,0(r4)
 100189c:	18c7883a 	add	r3,r3,r3
 10018a0:	18c7883a 	add	r3,r3,r3
 10018a4:	10c5883a 	add	r2,r2,r3
 10018a8:	10c00017 	ldw	r3,0(r2)
 10018ac:	d0a0230b 	ldhu	r2,-32628(gp)
 10018b0:	10bfffcc 	andi	r2,r2,65535
 10018b4:	1885c83a 	sub	r2,r3,r2
 10018b8:	1009883a 	mov	r4,r2
 10018bc:	100c8700 	call	100c870 <__floatsidf>
 10018c0:	100b883a 	mov	r5,r2
 10018c4:	180d883a 	mov	r6,r3
 10018c8:	2809883a 	mov	r4,r5
 10018cc:	300b883a 	mov	r5,r6
 10018d0:	1000bd40 	call	1000bd4 <getVpp>
 10018d4:	100b883a 	mov	r5,r2
 10018d8:	180d883a 	mov	r6,r3
 10018dc:	2809883a 	mov	r4,r5
 10018e0:	300b883a 	mov	r5,r6
 10018e4:	100cb040 	call	100cb04 <__truncdfsf2>
 10018e8:	1009883a 	mov	r4,r2
 10018ec:	008040f4 	movhi	r2,259
 10018f0:	108a0604 	addi	r2,r2,10264
 10018f4:	017ffff4 	movhi	r5,65535
 10018f8:	295ff004 	addi	r5,r5,32704
 10018fc:	2f0b883a 	add	r5,r5,fp
 1001900:	28c00017 	ldw	r3,0(r5)
 1001904:	18c7883a 	add	r3,r3,r3
 1001908:	18c7883a 	add	r3,r3,r3
 100190c:	10c5883a 	add	r2,r2,r3
 1001910:	11000015 	stw	r4,0(r2)
//			dr_point_num = 2000000;
//		else if(fre_now > 500000)
//			dr_point_num = 40000000;
	}

	for(int i = 0;i < 4097; i++){
 1001914:	00fffff4 	movhi	r3,65535
 1001918:	18dff004 	addi	r3,r3,32704
 100191c:	1f07883a 	add	r3,r3,fp
 1001920:	18800017 	ldw	r2,0(r3)
 1001924:	10800044 	addi	r2,r2,1
 1001928:	013ffff4 	movhi	r4,65535
 100192c:	211ff004 	addi	r4,r4,32704
 1001930:	2709883a 	add	r4,r4,fp
 1001934:	20800015 	stw	r2,0(r4)
 1001938:	017ffff4 	movhi	r5,65535
 100193c:	295ff004 	addi	r5,r5,32704
 1001940:	2f0b883a 	add	r5,r5,fp
 1001944:	28800017 	ldw	r2,0(r5)
 1001948:	10840050 	cmplti	r2,r2,4097
 100194c:	103fcd1e 	bne	r2,zero,1001884 <__alt_data_end+0xff801884>
		sig1_real[i] = getVpp(sig1[i]-rdac_zero);
	}
	if(dr_point_num < 401){
 1001950:	00fffff4 	movhi	r3,65535
 1001954:	18dfee04 	addi	r3,r3,32696
 1001958:	1f07883a 	add	r3,r3,fp
 100195c:	18800017 	ldw	r2,0(r3)
 1001960:	10806448 	cmpgei	r2,r2,401
 1001964:	1001e31e 	bne	r2,zero,10020f4 <Paint_w+0xc5c>
		if(y_mod == 0){	//2mV
 1001968:	d0a00717 	ldw	r2,-32740(gp)
 100196c:	10009e1e 	bne	r2,zero,1001be8 <Paint_w+0x750>
			for(int i = 1; i< dr_point_num; i++){
 1001970:	00800044 	movi	r2,1
 1001974:	013ffff4 	movhi	r4,65535
 1001978:	211ff104 	addi	r4,r4,32708
 100197c:	2709883a 	add	r4,r4,fp
 1001980:	20800015 	stw	r2,0(r4)
 1001984:	00008e06 	br	1001bc0 <Paint_w+0x728>
				if(abs(sig1_real[i])<=8){
 1001988:	008040f4 	movhi	r2,259
 100198c:	108a0604 	addi	r2,r2,10264
 1001990:	017ffff4 	movhi	r5,65535
 1001994:	295ff104 	addi	r5,r5,32708
 1001998:	2f0b883a 	add	r5,r5,fp
 100199c:	28c00017 	ldw	r3,0(r5)
 10019a0:	18c7883a 	add	r3,r3,r3
 10019a4:	18c7883a 	add	r3,r3,r3
 10019a8:	10c5883a 	add	r2,r2,r3
 10019ac:	10c00017 	ldw	r3,0(r2)
 10019b0:	1809883a 	mov	r4,r3
 10019b4:	100a3800 	call	100a380 <__fixsfsi>
 10019b8:	10bffe10 	cmplti	r2,r2,-8
 10019bc:	10004c1e 	bne	r2,zero,1001af0 <Paint_w+0x658>
 10019c0:	008040f4 	movhi	r2,259
 10019c4:	108a0604 	addi	r2,r2,10264
 10019c8:	013ffff4 	movhi	r4,65535
 10019cc:	211ff104 	addi	r4,r4,32708
 10019d0:	2709883a 	add	r4,r4,fp
 10019d4:	20c00017 	ldw	r3,0(r4)
 10019d8:	18c7883a 	add	r3,r3,r3
 10019dc:	18c7883a 	add	r3,r3,r3
 10019e0:	10c5883a 	add	r2,r2,r3
 10019e4:	10c00017 	ldw	r3,0(r2)
 10019e8:	1809883a 	mov	r4,r3
 10019ec:	100a3800 	call	100a380 <__fixsfsi>
 10019f0:	10800248 	cmpgei	r2,r2,9
 10019f4:	10003e1e 	bne	r2,zero,1001af0 <Paint_w+0x658>
					ytrans[i-1] = -(sig1_real[i]/8.0)*160 + 188;
 10019f8:	017ffff4 	movhi	r5,65535
 10019fc:	295ff104 	addi	r5,r5,32708
 1001a00:	2f0b883a 	add	r5,r5,fp
 1001a04:	28800017 	ldw	r2,0(r5)
 1001a08:	143fffc4 	addi	r16,r2,-1
 1001a0c:	008040f4 	movhi	r2,259
 1001a10:	108a0604 	addi	r2,r2,10264
 1001a14:	013ffff4 	movhi	r4,65535
 1001a18:	211ff104 	addi	r4,r4,32708
 1001a1c:	2709883a 	add	r4,r4,fp
 1001a20:	20c00017 	ldw	r3,0(r4)
 1001a24:	18c7883a 	add	r3,r3,r3
 1001a28:	18c7883a 	add	r3,r3,r3
 1001a2c:	10c5883a 	add	r2,r2,r3
 1001a30:	10c00017 	ldw	r3,0(r2)
 1001a34:	1809883a 	mov	r4,r3
 1001a38:	100c9f40 	call	100c9f4 <__extendsfdf2>
 1001a3c:	1011883a 	mov	r8,r2
 1001a40:	1813883a 	mov	r9,r3
 1001a44:	000d883a 	mov	r6,zero
 1001a48:	01d00834 	movhi	r7,16416
 1001a4c:	4009883a 	mov	r4,r8
 1001a50:	480b883a 	mov	r5,r9
 1001a54:	100ac9c0 	call	100ac9c <__divdf3>
 1001a58:	1009883a 	mov	r4,r2
 1001a5c:	180b883a 	mov	r5,r3
 1001a60:	2005883a 	mov	r2,r4
 1001a64:	2807883a 	mov	r3,r5
 1001a68:	1029883a 	mov	r20,r2
 1001a6c:	1d60003c 	xorhi	r21,r3,32768
 1001a70:	000d883a 	mov	r6,zero
 1001a74:	01d01934 	movhi	r7,16484
 1001a78:	a009883a 	mov	r4,r20
 1001a7c:	a80b883a 	mov	r5,r21
 1001a80:	100b7dc0 	call	100b7dc <__muldf3>
 1001a84:	1009883a 	mov	r4,r2
 1001a88:	180b883a 	mov	r5,r3
 1001a8c:	2005883a 	mov	r2,r4
 1001a90:	2807883a 	mov	r3,r5
 1001a94:	000d883a 	mov	r6,zero
 1001a98:	01d01a34 	movhi	r7,16488
 1001a9c:	39e00004 	addi	r7,r7,-32768
 1001aa0:	1009883a 	mov	r4,r2
 1001aa4:	180b883a 	mov	r5,r3
 1001aa8:	100a3f00 	call	100a3f0 <__adddf3>
 1001aac:	1009883a 	mov	r4,r2
 1001ab0:	180b883a 	mov	r5,r3
 1001ab4:	2005883a 	mov	r2,r4
 1001ab8:	2807883a 	mov	r3,r5
 1001abc:	1009883a 	mov	r4,r2
 1001ac0:	180b883a 	mov	r5,r3
 1001ac4:	100cb040 	call	100cb04 <__truncdfsf2>
 1001ac8:	1007883a 	mov	r3,r2
 1001acc:	8405883a 	add	r2,r16,r16
 1001ad0:	1085883a 	add	r2,r2,r2
 1001ad4:	017ffff4 	movhi	r5,65535
 1001ad8:	295fee04 	addi	r5,r5,32696
 1001adc:	2f0b883a 	add	r5,r5,fp
 1001ae0:	2885883a 	add	r2,r5,r2
 1001ae4:	10900804 	addi	r2,r2,16416
 1001ae8:	10c00015 	stw	r3,0(r2)
 1001aec:	00002b06 	br	1001b9c <Paint_w+0x704>
				}
				else if(sig1_real[i]>0)
 1001af0:	008040f4 	movhi	r2,259
 1001af4:	108a0604 	addi	r2,r2,10264
 1001af8:	013ffff4 	movhi	r4,65535
 1001afc:	211ff104 	addi	r4,r4,32708
 1001b00:	2709883a 	add	r4,r4,fp
 1001b04:	20c00017 	ldw	r3,0(r4)
 1001b08:	18c7883a 	add	r3,r3,r3
 1001b0c:	18c7883a 	add	r3,r3,r3
 1001b10:	10c5883a 	add	r2,r2,r3
 1001b14:	10c00017 	ldw	r3,0(r2)
 1001b18:	000b883a 	mov	r5,zero
 1001b1c:	1809883a 	mov	r4,r3
 1001b20:	100991c0 	call	100991c <__gesf2>
 1001b24:	00800f0e 	bge	zero,r2,1001b64 <Paint_w+0x6cc>
					ytrans[i-1] = 28;
 1001b28:	017ffff4 	movhi	r5,65535
 1001b2c:	295ff104 	addi	r5,r5,32708
 1001b30:	2f0b883a 	add	r5,r5,fp
 1001b34:	28800017 	ldw	r2,0(r5)
 1001b38:	10bfffc4 	addi	r2,r2,-1
 1001b3c:	1085883a 	add	r2,r2,r2
 1001b40:	1085883a 	add	r2,r2,r2
 1001b44:	00fffff4 	movhi	r3,65535
 1001b48:	18dfee04 	addi	r3,r3,32696
 1001b4c:	1f07883a 	add	r3,r3,fp
 1001b50:	1885883a 	add	r2,r3,r2
 1001b54:	10900804 	addi	r2,r2,16416
 1001b58:	00d07834 	movhi	r3,16864
 1001b5c:	10c00015 	stw	r3,0(r2)
 1001b60:	00000e06 	br	1001b9c <Paint_w+0x704>
				else
					ytrans[i-1] = 348;
 1001b64:	013ffff4 	movhi	r4,65535
 1001b68:	211ff104 	addi	r4,r4,32708
 1001b6c:	2709883a 	add	r4,r4,fp
 1001b70:	20800017 	ldw	r2,0(r4)
 1001b74:	10bfffc4 	addi	r2,r2,-1
 1001b78:	1085883a 	add	r2,r2,r2
 1001b7c:	1085883a 	add	r2,r2,r2
 1001b80:	017ffff4 	movhi	r5,65535
 1001b84:	295fee04 	addi	r5,r5,32696
 1001b88:	2f0b883a 	add	r5,r5,fp
 1001b8c:	2885883a 	add	r2,r5,r2
 1001b90:	10900804 	addi	r2,r2,16416
 1001b94:	00d0ebb4 	movhi	r3,17326
 1001b98:	10c00015 	stw	r3,0(r2)
	for(int i = 0;i < 4097; i++){
		sig1_real[i] = getVpp(sig1[i]-rdac_zero);
	}
	if(dr_point_num < 401){
		if(y_mod == 0){	//2mV
			for(int i = 1; i< dr_point_num; i++){
 1001b9c:	00fffff4 	movhi	r3,65535
 1001ba0:	18dff104 	addi	r3,r3,32708
 1001ba4:	1f07883a 	add	r3,r3,fp
 1001ba8:	18800017 	ldw	r2,0(r3)
 1001bac:	10800044 	addi	r2,r2,1
 1001bb0:	013ffff4 	movhi	r4,65535
 1001bb4:	211ff104 	addi	r4,r4,32708
 1001bb8:	2709883a 	add	r4,r4,fp
 1001bbc:	20800015 	stw	r2,0(r4)
 1001bc0:	017ffff4 	movhi	r5,65535
 1001bc4:	295ff104 	addi	r5,r5,32708
 1001bc8:	2f0b883a 	add	r5,r5,fp
 1001bcc:	28c00017 	ldw	r3,0(r5)
 1001bd0:	013ffff4 	movhi	r4,65535
 1001bd4:	211fee04 	addi	r4,r4,32696
 1001bd8:	2709883a 	add	r4,r4,fp
 1001bdc:	20800017 	ldw	r2,0(r4)
 1001be0:	18bf6916 	blt	r3,r2,1001988 <__alt_data_end+0xff801988>
 1001be4:	00015906 	br	100214c <Paint_w+0xcb4>
					ytrans[i-1] = 28;
				else
					ytrans[i-1] = 348;
			}
		}
		else if(y_mod == 1){	//0.1V
 1001be8:	d0a00717 	ldw	r2,-32740(gp)
 1001bec:	10800058 	cmpnei	r2,r2,1
 1001bf0:	10009e1e 	bne	r2,zero,1001e6c <Paint_w+0x9d4>
			for(int i = 1; i< dr_point_num; i++){
 1001bf4:	00800044 	movi	r2,1
 1001bf8:	017ffff4 	movhi	r5,65535
 1001bfc:	295ff204 	addi	r5,r5,32712
 1001c00:	2f0b883a 	add	r5,r5,fp
 1001c04:	28800015 	stw	r2,0(r5)
 1001c08:	00008e06 	br	1001e44 <Paint_w+0x9ac>
				if(abs(sig1_real[i])<=800){
 1001c0c:	008040f4 	movhi	r2,259
 1001c10:	108a0604 	addi	r2,r2,10264
 1001c14:	013ffff4 	movhi	r4,65535
 1001c18:	211ff204 	addi	r4,r4,32712
 1001c1c:	2709883a 	add	r4,r4,fp
 1001c20:	20c00017 	ldw	r3,0(r4)
 1001c24:	18c7883a 	add	r3,r3,r3
 1001c28:	18c7883a 	add	r3,r3,r3
 1001c2c:	10c5883a 	add	r2,r2,r3
 1001c30:	10c00017 	ldw	r3,0(r2)
 1001c34:	1809883a 	mov	r4,r3
 1001c38:	100a3800 	call	100a380 <__fixsfsi>
 1001c3c:	10bf3810 	cmplti	r2,r2,-800
 1001c40:	10004c1e 	bne	r2,zero,1001d74 <Paint_w+0x8dc>
 1001c44:	008040f4 	movhi	r2,259
 1001c48:	108a0604 	addi	r2,r2,10264
 1001c4c:	017ffff4 	movhi	r5,65535
 1001c50:	295ff204 	addi	r5,r5,32712
 1001c54:	2f0b883a 	add	r5,r5,fp
 1001c58:	28c00017 	ldw	r3,0(r5)
 1001c5c:	18c7883a 	add	r3,r3,r3
 1001c60:	18c7883a 	add	r3,r3,r3
 1001c64:	10c5883a 	add	r2,r2,r3
 1001c68:	10c00017 	ldw	r3,0(r2)
 1001c6c:	1809883a 	mov	r4,r3
 1001c70:	100a3800 	call	100a380 <__fixsfsi>
 1001c74:	1080c848 	cmpgei	r2,r2,801
 1001c78:	10003e1e 	bne	r2,zero,1001d74 <Paint_w+0x8dc>
					ytrans[i-1] = -(sig1_real[i]/800.0)*160 + 188;
 1001c7c:	00fffff4 	movhi	r3,65535
 1001c80:	18dff204 	addi	r3,r3,32712
 1001c84:	1f07883a 	add	r3,r3,fp
 1001c88:	18800017 	ldw	r2,0(r3)
 1001c8c:	143fffc4 	addi	r16,r2,-1
 1001c90:	008040f4 	movhi	r2,259
 1001c94:	108a0604 	addi	r2,r2,10264
 1001c98:	013ffff4 	movhi	r4,65535
 1001c9c:	211ff204 	addi	r4,r4,32712
 1001ca0:	2709883a 	add	r4,r4,fp
 1001ca4:	20c00017 	ldw	r3,0(r4)
 1001ca8:	18c7883a 	add	r3,r3,r3
 1001cac:	18c7883a 	add	r3,r3,r3
 1001cb0:	10c5883a 	add	r2,r2,r3
 1001cb4:	10c00017 	ldw	r3,0(r2)
 1001cb8:	1809883a 	mov	r4,r3
 1001cbc:	100c9f40 	call	100c9f4 <__extendsfdf2>
 1001cc0:	1011883a 	mov	r8,r2
 1001cc4:	1813883a 	mov	r9,r3
 1001cc8:	000d883a 	mov	r6,zero
 1001ccc:	01d02274 	movhi	r7,16521
 1001cd0:	4009883a 	mov	r4,r8
 1001cd4:	480b883a 	mov	r5,r9
 1001cd8:	100ac9c0 	call	100ac9c <__divdf3>
 1001cdc:	1009883a 	mov	r4,r2
 1001ce0:	180b883a 	mov	r5,r3
 1001ce4:	2005883a 	mov	r2,r4
 1001ce8:	2807883a 	mov	r3,r5
 1001cec:	1025883a 	mov	r18,r2
 1001cf0:	1ce0003c 	xorhi	r19,r3,32768
 1001cf4:	000d883a 	mov	r6,zero
 1001cf8:	01d01934 	movhi	r7,16484
 1001cfc:	9009883a 	mov	r4,r18
 1001d00:	980b883a 	mov	r5,r19
 1001d04:	100b7dc0 	call	100b7dc <__muldf3>
 1001d08:	1009883a 	mov	r4,r2
 1001d0c:	180b883a 	mov	r5,r3
 1001d10:	2005883a 	mov	r2,r4
 1001d14:	2807883a 	mov	r3,r5
 1001d18:	000d883a 	mov	r6,zero
 1001d1c:	01d01a34 	movhi	r7,16488
 1001d20:	39e00004 	addi	r7,r7,-32768
 1001d24:	1009883a 	mov	r4,r2
 1001d28:	180b883a 	mov	r5,r3
 1001d2c:	100a3f00 	call	100a3f0 <__adddf3>
 1001d30:	1009883a 	mov	r4,r2
 1001d34:	180b883a 	mov	r5,r3
 1001d38:	2005883a 	mov	r2,r4
 1001d3c:	2807883a 	mov	r3,r5
 1001d40:	1009883a 	mov	r4,r2
 1001d44:	180b883a 	mov	r5,r3
 1001d48:	100cb040 	call	100cb04 <__truncdfsf2>
 1001d4c:	1007883a 	mov	r3,r2
 1001d50:	8405883a 	add	r2,r16,r16
 1001d54:	1085883a 	add	r2,r2,r2
 1001d58:	017ffff4 	movhi	r5,65535
 1001d5c:	295fee04 	addi	r5,r5,32696
 1001d60:	2f0b883a 	add	r5,r5,fp
 1001d64:	2885883a 	add	r2,r5,r2
 1001d68:	10900804 	addi	r2,r2,16416
 1001d6c:	10c00015 	stw	r3,0(r2)
 1001d70:	00002b06 	br	1001e20 <Paint_w+0x988>
				}
				else if(sig1_real[i]>0)
 1001d74:	008040f4 	movhi	r2,259
 1001d78:	108a0604 	addi	r2,r2,10264
 1001d7c:	013ffff4 	movhi	r4,65535
 1001d80:	211ff204 	addi	r4,r4,32712
 1001d84:	2709883a 	add	r4,r4,fp
 1001d88:	20c00017 	ldw	r3,0(r4)
 1001d8c:	18c7883a 	add	r3,r3,r3
 1001d90:	18c7883a 	add	r3,r3,r3
 1001d94:	10c5883a 	add	r2,r2,r3
 1001d98:	10c00017 	ldw	r3,0(r2)
 1001d9c:	000b883a 	mov	r5,zero
 1001da0:	1809883a 	mov	r4,r3
 1001da4:	100991c0 	call	100991c <__gesf2>
 1001da8:	00800f0e 	bge	zero,r2,1001de8 <Paint_w+0x950>
					ytrans[i-1] = 28;
 1001dac:	017ffff4 	movhi	r5,65535
 1001db0:	295ff204 	addi	r5,r5,32712
 1001db4:	2f0b883a 	add	r5,r5,fp
 1001db8:	28800017 	ldw	r2,0(r5)
 1001dbc:	10bfffc4 	addi	r2,r2,-1
 1001dc0:	1085883a 	add	r2,r2,r2
 1001dc4:	1085883a 	add	r2,r2,r2
 1001dc8:	00fffff4 	movhi	r3,65535
 1001dcc:	18dfee04 	addi	r3,r3,32696
 1001dd0:	1f07883a 	add	r3,r3,fp
 1001dd4:	1885883a 	add	r2,r3,r2
 1001dd8:	10900804 	addi	r2,r2,16416
 1001ddc:	00d07834 	movhi	r3,16864
 1001de0:	10c00015 	stw	r3,0(r2)
 1001de4:	00000e06 	br	1001e20 <Paint_w+0x988>
				else
					ytrans[i-1] = 348;
 1001de8:	013ffff4 	movhi	r4,65535
 1001dec:	211ff204 	addi	r4,r4,32712
 1001df0:	2709883a 	add	r4,r4,fp
 1001df4:	20800017 	ldw	r2,0(r4)
 1001df8:	10bfffc4 	addi	r2,r2,-1
 1001dfc:	1085883a 	add	r2,r2,r2
 1001e00:	1085883a 	add	r2,r2,r2
 1001e04:	017ffff4 	movhi	r5,65535
 1001e08:	295fee04 	addi	r5,r5,32696
 1001e0c:	2f0b883a 	add	r5,r5,fp
 1001e10:	2885883a 	add	r2,r5,r2
 1001e14:	10900804 	addi	r2,r2,16416
 1001e18:	00d0ebb4 	movhi	r3,17326
 1001e1c:	10c00015 	stw	r3,0(r2)
				else
					ytrans[i-1] = 348;
			}
		}
		else if(y_mod == 1){	//0.1V
			for(int i = 1; i< dr_point_num; i++){
 1001e20:	00fffff4 	movhi	r3,65535
 1001e24:	18dff204 	addi	r3,r3,32712
 1001e28:	1f07883a 	add	r3,r3,fp
 1001e2c:	18800017 	ldw	r2,0(r3)
 1001e30:	10800044 	addi	r2,r2,1
 1001e34:	013ffff4 	movhi	r4,65535
 1001e38:	211ff204 	addi	r4,r4,32712
 1001e3c:	2709883a 	add	r4,r4,fp
 1001e40:	20800015 	stw	r2,0(r4)
 1001e44:	017ffff4 	movhi	r5,65535
 1001e48:	295ff204 	addi	r5,r5,32712
 1001e4c:	2f0b883a 	add	r5,r5,fp
 1001e50:	28c00017 	ldw	r3,0(r5)
 1001e54:	013ffff4 	movhi	r4,65535
 1001e58:	211fee04 	addi	r4,r4,32696
 1001e5c:	2709883a 	add	r4,r4,fp
 1001e60:	20800017 	ldw	r2,0(r4)
 1001e64:	18bf6916 	blt	r3,r2,1001c0c <__alt_data_end+0xff801c0c>
 1001e68:	0000b806 	br	100214c <Paint_w+0xcb4>
					ytrans[i-1] = 28;
				else
					ytrans[i-1] = 348;
			}
		}
		else if(y_mod == 2){	//1V
 1001e6c:	d0a00717 	ldw	r2,-32740(gp)
 1001e70:	10800098 	cmpnei	r2,r2,2
 1001e74:	1000b51e 	bne	r2,zero,100214c <Paint_w+0xcb4>
			for(int i = 1; i< dr_point_num; i++){
 1001e78:	00800044 	movi	r2,1
 1001e7c:	017ffff4 	movhi	r5,65535
 1001e80:	295ff304 	addi	r5,r5,32716
 1001e84:	2f0b883a 	add	r5,r5,fp
 1001e88:	28800015 	stw	r2,0(r5)
 1001e8c:	00008f06 	br	10020cc <Paint_w+0xc34>
				if(abs(sig1_real[i])<=8000){
 1001e90:	008040f4 	movhi	r2,259
 1001e94:	108a0604 	addi	r2,r2,10264
 1001e98:	013ffff4 	movhi	r4,65535
 1001e9c:	211ff304 	addi	r4,r4,32716
 1001ea0:	2709883a 	add	r4,r4,fp
 1001ea4:	20c00017 	ldw	r3,0(r4)
 1001ea8:	18c7883a 	add	r3,r3,r3
 1001eac:	18c7883a 	add	r3,r3,r3
 1001eb0:	10c5883a 	add	r2,r2,r3
 1001eb4:	10c00017 	ldw	r3,0(r2)
 1001eb8:	1809883a 	mov	r4,r3
 1001ebc:	100a3800 	call	100a380 <__fixsfsi>
 1001ec0:	10b83010 	cmplti	r2,r2,-8000
 1001ec4:	10004d1e 	bne	r2,zero,1001ffc <Paint_w+0xb64>
 1001ec8:	008040f4 	movhi	r2,259
 1001ecc:	108a0604 	addi	r2,r2,10264
 1001ed0:	017ffff4 	movhi	r5,65535
 1001ed4:	295ff304 	addi	r5,r5,32716
 1001ed8:	2f0b883a 	add	r5,r5,fp
 1001edc:	28c00017 	ldw	r3,0(r5)
 1001ee0:	18c7883a 	add	r3,r3,r3
 1001ee4:	18c7883a 	add	r3,r3,r3
 1001ee8:	10c5883a 	add	r2,r2,r3
 1001eec:	10c00017 	ldw	r3,0(r2)
 1001ef0:	1809883a 	mov	r4,r3
 1001ef4:	100a3800 	call	100a380 <__fixsfsi>
 1001ef8:	1087d048 	cmpgei	r2,r2,8001
 1001efc:	10003f1e 	bne	r2,zero,1001ffc <Paint_w+0xb64>
					ytrans[i-1] = -(sig1_real[i]/8000.0)*160 + 188;
 1001f00:	00fffff4 	movhi	r3,65535
 1001f04:	18dff304 	addi	r3,r3,32716
 1001f08:	1f07883a 	add	r3,r3,fp
 1001f0c:	18800017 	ldw	r2,0(r3)
 1001f10:	14bfffc4 	addi	r18,r2,-1
 1001f14:	008040f4 	movhi	r2,259
 1001f18:	108a0604 	addi	r2,r2,10264
 1001f1c:	013ffff4 	movhi	r4,65535
 1001f20:	211ff304 	addi	r4,r4,32716
 1001f24:	2709883a 	add	r4,r4,fp
 1001f28:	20c00017 	ldw	r3,0(r4)
 1001f2c:	18c7883a 	add	r3,r3,r3
 1001f30:	18c7883a 	add	r3,r3,r3
 1001f34:	10c5883a 	add	r2,r2,r3
 1001f38:	10c00017 	ldw	r3,0(r2)
 1001f3c:	1809883a 	mov	r4,r3
 1001f40:	100c9f40 	call	100c9f4 <__extendsfdf2>
 1001f44:	1011883a 	mov	r8,r2
 1001f48:	1813883a 	mov	r9,r3
 1001f4c:	000d883a 	mov	r6,zero
 1001f50:	01d02ff4 	movhi	r7,16575
 1001f54:	39d00004 	addi	r7,r7,16384
 1001f58:	4009883a 	mov	r4,r8
 1001f5c:	480b883a 	mov	r5,r9
 1001f60:	100ac9c0 	call	100ac9c <__divdf3>
 1001f64:	1009883a 	mov	r4,r2
 1001f68:	180b883a 	mov	r5,r3
 1001f6c:	2005883a 	mov	r2,r4
 1001f70:	2807883a 	mov	r3,r5
 1001f74:	1021883a 	mov	r16,r2
 1001f78:	1c60003c 	xorhi	r17,r3,32768
 1001f7c:	000d883a 	mov	r6,zero
 1001f80:	01d01934 	movhi	r7,16484
 1001f84:	8009883a 	mov	r4,r16
 1001f88:	880b883a 	mov	r5,r17
 1001f8c:	100b7dc0 	call	100b7dc <__muldf3>
 1001f90:	1009883a 	mov	r4,r2
 1001f94:	180b883a 	mov	r5,r3
 1001f98:	2005883a 	mov	r2,r4
 1001f9c:	2807883a 	mov	r3,r5
 1001fa0:	000d883a 	mov	r6,zero
 1001fa4:	01d01a34 	movhi	r7,16488
 1001fa8:	39e00004 	addi	r7,r7,-32768
 1001fac:	1009883a 	mov	r4,r2
 1001fb0:	180b883a 	mov	r5,r3
 1001fb4:	100a3f00 	call	100a3f0 <__adddf3>
 1001fb8:	1009883a 	mov	r4,r2
 1001fbc:	180b883a 	mov	r5,r3
 1001fc0:	2005883a 	mov	r2,r4
 1001fc4:	2807883a 	mov	r3,r5
 1001fc8:	1009883a 	mov	r4,r2
 1001fcc:	180b883a 	mov	r5,r3
 1001fd0:	100cb040 	call	100cb04 <__truncdfsf2>
 1001fd4:	1007883a 	mov	r3,r2
 1001fd8:	9485883a 	add	r2,r18,r18
 1001fdc:	1085883a 	add	r2,r2,r2
 1001fe0:	017ffff4 	movhi	r5,65535
 1001fe4:	295fee04 	addi	r5,r5,32696
 1001fe8:	2f0b883a 	add	r5,r5,fp
 1001fec:	2885883a 	add	r2,r5,r2
 1001ff0:	10900804 	addi	r2,r2,16416
 1001ff4:	10c00015 	stw	r3,0(r2)
 1001ff8:	00002b06 	br	10020a8 <Paint_w+0xc10>
				}
				else if(sig1_real[i]>0)
 1001ffc:	008040f4 	movhi	r2,259
 1002000:	108a0604 	addi	r2,r2,10264
 1002004:	013ffff4 	movhi	r4,65535
 1002008:	211ff304 	addi	r4,r4,32716
 100200c:	2709883a 	add	r4,r4,fp
 1002010:	20c00017 	ldw	r3,0(r4)
 1002014:	18c7883a 	add	r3,r3,r3
 1002018:	18c7883a 	add	r3,r3,r3
 100201c:	10c5883a 	add	r2,r2,r3
 1002020:	10c00017 	ldw	r3,0(r2)
 1002024:	000b883a 	mov	r5,zero
 1002028:	1809883a 	mov	r4,r3
 100202c:	100991c0 	call	100991c <__gesf2>
 1002030:	00800f0e 	bge	zero,r2,1002070 <Paint_w+0xbd8>
					ytrans[i-1] = 28;
 1002034:	017ffff4 	movhi	r5,65535
 1002038:	295ff304 	addi	r5,r5,32716
 100203c:	2f0b883a 	add	r5,r5,fp
 1002040:	28800017 	ldw	r2,0(r5)
 1002044:	10bfffc4 	addi	r2,r2,-1
 1002048:	1085883a 	add	r2,r2,r2
 100204c:	1085883a 	add	r2,r2,r2
 1002050:	00fffff4 	movhi	r3,65535
 1002054:	18dfee04 	addi	r3,r3,32696
 1002058:	1f07883a 	add	r3,r3,fp
 100205c:	1885883a 	add	r2,r3,r2
 1002060:	10900804 	addi	r2,r2,16416
 1002064:	00d07834 	movhi	r3,16864
 1002068:	10c00015 	stw	r3,0(r2)
 100206c:	00000e06 	br	10020a8 <Paint_w+0xc10>
				else
					ytrans[i-1] = 348;
 1002070:	013ffff4 	movhi	r4,65535
 1002074:	211ff304 	addi	r4,r4,32716
 1002078:	2709883a 	add	r4,r4,fp
 100207c:	20800017 	ldw	r2,0(r4)
 1002080:	10bfffc4 	addi	r2,r2,-1
 1002084:	1085883a 	add	r2,r2,r2
 1002088:	1085883a 	add	r2,r2,r2
 100208c:	017ffff4 	movhi	r5,65535
 1002090:	295fee04 	addi	r5,r5,32696
 1002094:	2f0b883a 	add	r5,r5,fp
 1002098:	2885883a 	add	r2,r5,r2
 100209c:	10900804 	addi	r2,r2,16416
 10020a0:	00d0ebb4 	movhi	r3,17326
 10020a4:	10c00015 	stw	r3,0(r2)
				else
					ytrans[i-1] = 348;
			}
		}
		else if(y_mod == 2){	//1V
			for(int i = 1; i< dr_point_num; i++){
 10020a8:	00fffff4 	movhi	r3,65535
 10020ac:	18dff304 	addi	r3,r3,32716
 10020b0:	1f07883a 	add	r3,r3,fp
 10020b4:	18800017 	ldw	r2,0(r3)
 10020b8:	10800044 	addi	r2,r2,1
 10020bc:	013ffff4 	movhi	r4,65535
 10020c0:	211ff304 	addi	r4,r4,32716
 10020c4:	2709883a 	add	r4,r4,fp
 10020c8:	20800015 	stw	r2,0(r4)
 10020cc:	017ffff4 	movhi	r5,65535
 10020d0:	295ff304 	addi	r5,r5,32716
 10020d4:	2f0b883a 	add	r5,r5,fp
 10020d8:	28c00017 	ldw	r3,0(r5)
 10020dc:	013ffff4 	movhi	r4,65535
 10020e0:	211fee04 	addi	r4,r4,32696
 10020e4:	2709883a 	add	r4,r4,fp
 10020e8:	20800017 	ldw	r2,0(r4)
 10020ec:	18bf6816 	blt	r3,r2,1001e90 <__alt_data_end+0xff801e90>
 10020f0:	00001606 	br	100214c <Paint_w+0xcb4>
					ytrans[i-1] = 348;
			}
		}
	}
	else{
		for(int i = 0; i < Times+1; i++){
 10020f4:	017ffff4 	movhi	r5,65535
 10020f8:	295ff404 	addi	r5,r5,32720
 10020fc:	2f0b883a 	add	r5,r5,fp
 1002100:	28000015 	stw	zero,0(r5)
 1002104:	00000906 	br	100212c <Paint_w+0xc94>
 1002108:	00fffff4 	movhi	r3,65535
 100210c:	18dff404 	addi	r3,r3,32720
 1002110:	1f07883a 	add	r3,r3,fp
 1002114:	18800017 	ldw	r2,0(r3)
 1002118:	10800044 	addi	r2,r2,1
 100211c:	013ffff4 	movhi	r4,65535
 1002120:	211ff404 	addi	r4,r4,32720
 1002124:	2709883a 	add	r4,r4,fp
 1002128:	20800015 	stw	r2,0(r4)
 100212c:	d0a02817 	ldw	r2,-32608(gp)
 1002130:	10800044 	addi	r2,r2,1
 1002134:	017ffff4 	movhi	r5,65535
 1002138:	295ff404 	addi	r5,r5,32720
 100213c:	2f0b883a 	add	r5,r5,fp
 1002140:	28c00017 	ldw	r3,0(r5)
 1002144:	18bff016 	blt	r3,r2,1002108 <__alt_data_end+0xff802108>

		}
		if(y_mod == 0){	//2mV
 1002148:	d0a00717 	ldw	r2,-32740(gp)
		else if(y_mod == 2){	//1V

		}
	}

	lcdRectClear(220, 28, 620, 348, WHITE);
 100214c:	00bfffd4 	movui	r2,65535
 1002150:	d8800015 	stw	r2,0(sp)
 1002154:	01c05704 	movi	r7,348
 1002158:	01809b04 	movi	r6,620
 100215c:	01400704 	movi	r5,28
 1002160:	01003704 	movi	r4,220
 1002164:	100328c0 	call	100328c <lcdRectClear>
	lcdDrawGrid(220, 28, 8, 10, 40, DGRAY);
 1002168:	009efbc4 	movi	r2,31727
 100216c:	d8800115 	stw	r2,4(sp)
 1002170:	00800a04 	movi	r2,40
 1002174:	d8800015 	stw	r2,0(sp)
 1002178:	01c00284 	movi	r7,10
 100217c:	01800204 	movi	r6,8
 1002180:	01400704 	movi	r5,28
 1002184:	01003704 	movi	r4,220
 1002188:	1003e4c0 	call	1003e4c <lcdDrawGrid>

	if(dr_sig_num == 200){
 100218c:	00fffff4 	movhi	r3,65535
 1002190:	18dfef04 	addi	r3,r3,32700
 1002194:	1f07883a 	add	r3,r3,fp
 1002198:	18800017 	ldw	r2,0(r3)
 100219c:	10803218 	cmpnei	r2,r2,200
 10021a0:	1000471e 	bne	r2,zero,10022c0 <Paint_w+0xe28>
		for(int i = 0; i < 200; i++){
 10021a4:	013ffff4 	movhi	r4,65535
 10021a8:	211ff504 	addi	r4,r4,32724
 10021ac:	2709883a 	add	r4,r4,fp
 10021b0:	20000015 	stw	zero,0(r4)
 10021b4:	00003c06 	br	10022a8 <Paint_w+0xe10>
			lcdDrawLine(2*i+220, ytrans[i], 2*(i+1)+220, ytrans[i+1], BLACK);
 10021b8:	017ffff4 	movhi	r5,65535
 10021bc:	295ff504 	addi	r5,r5,32724
 10021c0:	2f0b883a 	add	r5,r5,fp
 10021c4:	28800017 	ldw	r2,0(r5)
 10021c8:	10801b84 	addi	r2,r2,110
 10021cc:	1085883a 	add	r2,r2,r2
 10021d0:	143fffcc 	andi	r16,r2,65535
 10021d4:	00fffff4 	movhi	r3,65535
 10021d8:	18dff504 	addi	r3,r3,32724
 10021dc:	1f07883a 	add	r3,r3,fp
 10021e0:	18800017 	ldw	r2,0(r3)
 10021e4:	1085883a 	add	r2,r2,r2
 10021e8:	1085883a 	add	r2,r2,r2
 10021ec:	013ffff4 	movhi	r4,65535
 10021f0:	211fee04 	addi	r4,r4,32696
 10021f4:	2709883a 	add	r4,r4,fp
 10021f8:	2085883a 	add	r2,r4,r2
 10021fc:	10900804 	addi	r2,r2,16416
 1002200:	10c00017 	ldw	r3,0(r2)
 1002204:	1809883a 	mov	r4,r3
 1002208:	1008f3c0 	call	1008f3c <__fixunssfsi>
 100220c:	147fffcc 	andi	r17,r2,65535
 1002210:	017ffff4 	movhi	r5,65535
 1002214:	295ff504 	addi	r5,r5,32724
 1002218:	2f0b883a 	add	r5,r5,fp
 100221c:	28800017 	ldw	r2,0(r5)
 1002220:	10801bc4 	addi	r2,r2,111
 1002224:	1085883a 	add	r2,r2,r2
 1002228:	14bfffcc 	andi	r18,r2,65535
 100222c:	00fffff4 	movhi	r3,65535
 1002230:	18dff504 	addi	r3,r3,32724
 1002234:	1f07883a 	add	r3,r3,fp
 1002238:	18800017 	ldw	r2,0(r3)
 100223c:	10800044 	addi	r2,r2,1
 1002240:	1085883a 	add	r2,r2,r2
 1002244:	1085883a 	add	r2,r2,r2
 1002248:	013ffff4 	movhi	r4,65535
 100224c:	211fee04 	addi	r4,r4,32696
 1002250:	2709883a 	add	r4,r4,fp
 1002254:	2085883a 	add	r2,r4,r2
 1002258:	10900804 	addi	r2,r2,16416
 100225c:	10c00017 	ldw	r3,0(r2)
 1002260:	1809883a 	mov	r4,r3
 1002264:	1008f3c0 	call	1008f3c <__fixunssfsi>
 1002268:	10bfffcc 	andi	r2,r2,65535
 100226c:	d8000015 	stw	zero,0(sp)
 1002270:	100f883a 	mov	r7,r2
 1002274:	900d883a 	mov	r6,r18
 1002278:	880b883a 	mov	r5,r17
 100227c:	8009883a 	mov	r4,r16
 1002280:	100389c0 	call	100389c <lcdDrawLine>

	lcdRectClear(220, 28, 620, 348, WHITE);
	lcdDrawGrid(220, 28, 8, 10, 40, DGRAY);

	if(dr_sig_num == 200){
		for(int i = 0; i < 200; i++){
 1002284:	017ffff4 	movhi	r5,65535
 1002288:	295ff504 	addi	r5,r5,32724
 100228c:	2f0b883a 	add	r5,r5,fp
 1002290:	28800017 	ldw	r2,0(r5)
 1002294:	10800044 	addi	r2,r2,1
 1002298:	00fffff4 	movhi	r3,65535
 100229c:	18dff504 	addi	r3,r3,32724
 10022a0:	1f07883a 	add	r3,r3,fp
 10022a4:	18800015 	stw	r2,0(r3)
 10022a8:	013ffff4 	movhi	r4,65535
 10022ac:	211ff504 	addi	r4,r4,32724
 10022b0:	2709883a 	add	r4,r4,fp
 10022b4:	20800017 	ldw	r2,0(r4)
 10022b8:	10803210 	cmplti	r2,r2,200
 10022bc:	103fbe1e 	bne	r2,zero,10021b8 <__alt_data_end+0xff8021b8>
	}
	else{//--Sig1

	}
	*/
}
 10022c0:	0001883a 	nop
 10022c4:	e6fffa04 	addi	sp,fp,-24
 10022c8:	dfc00717 	ldw	ra,28(sp)
 10022cc:	df000617 	ldw	fp,24(sp)
 10022d0:	dd400517 	ldw	r21,20(sp)
 10022d4:	dd000417 	ldw	r20,16(sp)
 10022d8:	dcc00317 	ldw	r19,12(sp)
 10022dc:	dc800217 	ldw	r18,8(sp)
 10022e0:	dc400117 	ldw	r17,4(sp)
 10022e4:	dc000017 	ldw	r16,0(sp)
 10022e8:	dec00804 	addi	sp,sp,32
 10022ec:	f800283a 	ret

010022f0 <setSwitch>:
*	0 | 0mV~25mV  :x100		117.33		~~~~/100		| 0~2500		|	0~2933.25
*	1 | 25mV~500mV:x5		5.6		~~~~/5				| 125~2500	|	140~2800
*	2 | 500mV~8V  :x1/3		1/3.917		~~~~*3			| 167~2667	|	127~2042
***********************************************************************************/

void setSwitch(){
 10022f0:	defffd04 	addi	sp,sp,-12
 10022f4:	dfc00215 	stw	ra,8(sp)
 10022f8:	df000115 	stw	fp,4(sp)
 10022fc:	df000104 	addi	fp,sp,4
	IOWR(CLK_SAMPLE_KW_BASE, 0, KW_init);
 1002300:	d0e00017 	ldw	r3,-32768(gp)
 1002304:	00801034 	movhi	r2,64
 1002308:	10842c04 	addi	r2,r2,4272
 100230c:	10c00035 	stwio	r3,0(r2)
	IOWR(SAMPLE_TIME_BASE, 0, Times_init);
 1002310:	d0e00117 	ldw	r3,-32764(gp)
 1002314:	00801034 	movhi	r2,64
 1002318:	10842804 	addi	r2,r2,4256
 100231c:	10c00035 	stwio	r3,0(r2)

	u16 rdv = 0;
 1002320:	e03fff0d 	sth	zero,-4(fp)
	while(!IORD(VPP_FOUND_BASE, 0));
 1002324:	0001883a 	nop
 1002328:	00801034 	movhi	r2,64
 100232c:	10842004 	addi	r2,r2,4224
 1002330:	10800037 	ldwio	r2,0(r2)
 1002334:	103ffc26 	beq	r2,zero,1002328 <__alt_data_end+0xff802328>
	rdv = IORD(VPP_BASE, 0);
 1002338:	00801034 	movhi	r2,64
 100233c:	10842404 	addi	r2,r2,4240
 1002340:	10800037 	ldwio	r2,0(r2)
 1002344:	e0bfff0d 	sth	r2,-4(fp)

	IOWR(SWITCH_MOD_BASE, 0, 2);	//3
 1002348:	00c00084 	movi	r3,2
 100234c:	00801034 	movhi	r2,64
 1002350:	10840804 	addi	r2,r2,4128
 1002354:	10c00035 	stwio	r3,0(r2)
	if(!choosed && (vpp > 126)){
 1002358:	d0a02117 	ldw	r2,-32636(gp)
 100235c:	10001b1e 	bne	r2,zero,10023cc <setSwitch+0xdc>
 1002360:	d0a02d17 	ldw	r2,-32588(gp)
 1002364:	d0e02e17 	ldw	r3,-32584(gp)
 1002368:	000d883a 	mov	r6,zero
 100236c:	01d01834 	movhi	r7,16480
 1002370:	39e00004 	addi	r7,r7,-32768
 1002374:	1009883a 	mov	r4,r2
 1002378:	180b883a 	mov	r5,r3
 100237c:	100b60c0 	call	100b60c <__gedf2>
 1002380:	0080120e 	bge	zero,r2,10023cc <setSwitch+0xdc>
		switch_mod = 2;
 1002384:	00800084 	movi	r2,2
 1002388:	d0a00215 	stw	r2,-32760(gp)
		Mult = Mul1;
 100238c:	008624f4 	movhi	r2,6291
 1002390:	109d2f04 	addi	r2,r2,29884
 1002394:	d0a03115 	stw	r2,-32572(gp)
 1002398:	009003f4 	movhi	r2,16399
 100239c:	10958104 	addi	r2,r2,22020
 10023a0:	d0a03215 	stw	r2,-32568(gp)
		choosed = 1;
 10023a4:	00800044 	movi	r2,1
 10023a8:	d0a02115 	stw	r2,-32636(gp)
		IOWR(SWITCH_MOD_BASE, 0, switch_mod);
 10023ac:	d0e00217 	ldw	r3,-32760(gp)
 10023b0:	00801034 	movhi	r2,64
 10023b4:	10840804 	addi	r2,r2,4128
 10023b8:	10c00035 	stwio	r3,0(r2)
		printf("switch_mode == 2\n");
 10023bc:	010040b4 	movhi	r4,258
 10023c0:	210f9804 	addi	r4,r4,15968
 10023c4:	100d0000 	call	100d000 <puts>
 10023c8:	00003006 	br	100248c <setSwitch+0x19c>
	}
	else if(!choosed){
 10023cc:	d0a02117 	ldw	r2,-32636(gp)
 10023d0:	10002e1e 	bne	r2,zero,100248c <setSwitch+0x19c>
		IOWR(SWITCH_MOD_BASE, 0, 1);	//5
 10023d4:	00c00044 	movi	r3,1
 10023d8:	00801034 	movhi	r2,64
 10023dc:	10840804 	addi	r2,r2,4128
 10023e0:	10c00035 	stwio	r3,0(r2)
		if(!choosed && (vpp > 139)){
 10023e4:	d0a02117 	ldw	r2,-32636(gp)
 10023e8:	1000171e 	bne	r2,zero,1002448 <setSwitch+0x158>
 10023ec:	d0a02d17 	ldw	r2,-32588(gp)
 10023f0:	d0e02e17 	ldw	r3,-32584(gp)
 10023f4:	000d883a 	mov	r6,zero
 10023f8:	01d01874 	movhi	r7,16481
 10023fc:	39d80004 	addi	r7,r7,24576
 1002400:	1009883a 	mov	r4,r2
 1002404:	180b883a 	mov	r5,r3
 1002408:	100b60c0 	call	100b60c <__gedf2>
 100240c:	00800e0e 	bge	zero,r2,1002448 <setSwitch+0x158>
			switch_mod = 1;
 1002410:	00800044 	movi	r2,1
 1002414:	d0a00215 	stw	r2,-32760(gp)
			Mult = Mul2;
 1002418:	00adb6f4 	movhi	r2,46811
 100241c:	109b6dc4 	addi	r2,r2,28087
 1002420:	d0a03115 	stw	r2,-32572(gp)
 1002424:	008ff1f4 	movhi	r2,16327
 1002428:	10b6db44 	addi	r2,r2,-9363
 100242c:	d0a03215 	stw	r2,-32568(gp)
			choosed = 1;
 1002430:	00800044 	movi	r2,1
 1002434:	d0a02115 	stw	r2,-32636(gp)
			printf("switch_mode == 1\n");
 1002438:	010040b4 	movhi	r4,258
 100243c:	210f9d04 	addi	r4,r4,15988
 1002440:	100d0000 	call	100d000 <puts>
 1002444:	00001106 	br	100248c <setSwitch+0x19c>
		}
		else{
			IOWR(SWITCH_MOD_BASE, 0, 0);	//100
 1002448:	0007883a 	mov	r3,zero
 100244c:	00801034 	movhi	r2,64
 1002450:	10840804 	addi	r2,r2,4128
 1002454:	10c00035 	stwio	r3,0(r2)
			switch_mod = 0;
 1002458:	d0200215 	stw	zero,-32760(gp)
			Mult = Mul3;
 100245c:	00a5b2b4 	movhi	r2,38602
 1002460:	108b12c4 	addi	r2,r2,11339
 1002464:	d0a03115 	stw	r2,-32572(gp)
 1002468:	008fe074 	movhi	r2,16257
 100246c:	109d1f44 	addi	r2,r2,29821
 1002470:	d0a03215 	stw	r2,-32568(gp)
			choosed = 1;
 1002474:	00800044 	movi	r2,1
 1002478:	d0a02115 	stw	r2,-32636(gp)
			printf("switch_mode == 0\n");
 100247c:	010040b4 	movhi	r4,258
 1002480:	210fa204 	addi	r4,r4,16008
 1002484:	100d0000 	call	100d000 <puts>
		}
	}
}
 1002488:	00000006 	br	100248c <setSwitch+0x19c>
 100248c:	0001883a 	nop
 1002490:	e037883a 	mov	sp,fp
 1002494:	dfc00117 	ldw	ra,4(sp)
 1002498:	df000017 	ldw	fp,0(sp)
 100249c:	dec00204 	addi	sp,sp,8
 10024a0:	f800283a 	ret

010024a4 <i2cInit>:
 *      Author: hailiang
 */

#include "i2c.h"

void i2cInit(void) {
 10024a4:	deffff04 	addi	sp,sp,-4
 10024a8:	df000015 	stw	fp,0(sp)
 10024ac:	d839883a 	mov	fp,sp
	SDA_OUT;
 10024b0:	00c00044 	movi	r3,1
 10024b4:	00801034 	movhi	r2,64
 10024b8:	10844504 	addi	r2,r2,4372
 10024bc:	10c00035 	stwio	r3,0(r2)
	SDA_H;
 10024c0:	00c00044 	movi	r3,1
 10024c4:	00801034 	movhi	r2,64
 10024c8:	10844404 	addi	r2,r2,4368
 10024cc:	10c00035 	stwio	r3,0(r2)
	SCL_H;
 10024d0:	00c00044 	movi	r3,1
 10024d4:	00801034 	movhi	r2,64
 10024d8:	10844004 	addi	r2,r2,4352
 10024dc:	10c00035 	stwio	r3,0(r2)
}
 10024e0:	0001883a 	nop
 10024e4:	e037883a 	mov	sp,fp
 10024e8:	df000017 	ldw	fp,0(sp)
 10024ec:	dec00104 	addi	sp,sp,4
 10024f0:	f800283a 	ret

010024f4 <i2cDelay>:

void i2cDelay(void) {
 10024f4:	defffe04 	addi	sp,sp,-8
 10024f8:	dfc00115 	stw	ra,4(sp)
 10024fc:	df000015 	stw	fp,0(sp)
 1002500:	d839883a 	mov	fp,sp
	usleep(5);
 1002504:	01000144 	movi	r4,5
 1002508:	101aeb00 	call	101aeb0 <usleep>
}
 100250c:	0001883a 	nop
 1002510:	e037883a 	mov	sp,fp
 1002514:	dfc00117 	ldw	ra,4(sp)
 1002518:	df000017 	ldw	fp,0(sp)
 100251c:	dec00204 	addi	sp,sp,8
 1002520:	f800283a 	ret

01002524 <i2cStart>:

bool i2cStart(void) {
 1002524:	defffe04 	addi	sp,sp,-8
 1002528:	dfc00115 	stw	ra,4(sp)
 100252c:	df000015 	stw	fp,0(sp)
 1002530:	d839883a 	mov	fp,sp
	SDA_OUT;
 1002534:	00c00044 	movi	r3,1
 1002538:	00801034 	movhi	r2,64
 100253c:	10844504 	addi	r2,r2,4372
 1002540:	10c00035 	stwio	r3,0(r2)

	SDA_H;
 1002544:	00c00044 	movi	r3,1
 1002548:	00801034 	movhi	r2,64
 100254c:	10844404 	addi	r2,r2,4368
 1002550:	10c00035 	stwio	r3,0(r2)
	SCL_H;
 1002554:	00c00044 	movi	r3,1
 1002558:	00801034 	movhi	r2,64
 100255c:	10844004 	addi	r2,r2,4352
 1002560:	10c00035 	stwio	r3,0(r2)
	i2cDelay();
 1002564:	10024f40 	call	10024f4 <i2cDelay>
	if (!SDA_R) {
 1002568:	00801034 	movhi	r2,64
 100256c:	10844404 	addi	r2,r2,4368
 1002570:	10800037 	ldwio	r2,0(r2)
 1002574:	1000021e 	bne	r2,zero,1002580 <i2cStart+0x5c>
		return false;
 1002578:	0005883a 	mov	r2,zero
 100257c:	00001106 	br	10025c4 <i2cStart+0xa0>
	}
	SDA_L;
 1002580:	0007883a 	mov	r3,zero
 1002584:	00801034 	movhi	r2,64
 1002588:	10844404 	addi	r2,r2,4368
 100258c:	10c00035 	stwio	r3,0(r2)
	i2cDelay();
 1002590:	10024f40 	call	10024f4 <i2cDelay>

	if (SDA_R) {
 1002594:	00801034 	movhi	r2,64
 1002598:	10844404 	addi	r2,r2,4368
 100259c:	10800037 	ldwio	r2,0(r2)
 10025a0:	10000226 	beq	r2,zero,10025ac <i2cStart+0x88>
		return false;
 10025a4:	0005883a 	mov	r2,zero
 10025a8:	00000606 	br	10025c4 <i2cStart+0xa0>
	}
	SCL_L;
 10025ac:	0007883a 	mov	r3,zero
 10025b0:	00801034 	movhi	r2,64
 10025b4:	10844004 	addi	r2,r2,4352
 10025b8:	10c00035 	stwio	r3,0(r2)
	i2cDelay();
 10025bc:	10024f40 	call	10024f4 <i2cDelay>
	return true;
 10025c0:	00800044 	movi	r2,1
}
 10025c4:	e037883a 	mov	sp,fp
 10025c8:	dfc00117 	ldw	ra,4(sp)
 10025cc:	df000017 	ldw	fp,0(sp)
 10025d0:	dec00204 	addi	sp,sp,8
 10025d4:	f800283a 	ret

010025d8 <i2cStop>:

void i2cStop(void) {
 10025d8:	defffe04 	addi	sp,sp,-8
 10025dc:	dfc00115 	stw	ra,4(sp)
 10025e0:	df000015 	stw	fp,0(sp)
 10025e4:	d839883a 	mov	fp,sp
	SDA_OUT;
 10025e8:	00c00044 	movi	r3,1
 10025ec:	00801034 	movhi	r2,64
 10025f0:	10844504 	addi	r2,r2,4372
 10025f4:	10c00035 	stwio	r3,0(r2)

	SCL_L;
 10025f8:	0007883a 	mov	r3,zero
 10025fc:	00801034 	movhi	r2,64
 1002600:	10844004 	addi	r2,r2,4352
 1002604:	10c00035 	stwio	r3,0(r2)
	i2cDelay();
 1002608:	10024f40 	call	10024f4 <i2cDelay>
	SDA_L;
 100260c:	0007883a 	mov	r3,zero
 1002610:	00801034 	movhi	r2,64
 1002614:	10844404 	addi	r2,r2,4368
 1002618:	10c00035 	stwio	r3,0(r2)
	i2cDelay();
 100261c:	10024f40 	call	10024f4 <i2cDelay>
	SCL_H;
 1002620:	00c00044 	movi	r3,1
 1002624:	00801034 	movhi	r2,64
 1002628:	10844004 	addi	r2,r2,4352
 100262c:	10c00035 	stwio	r3,0(r2)
	i2cDelay();
 1002630:	10024f40 	call	10024f4 <i2cDelay>
	SDA_H;
 1002634:	00c00044 	movi	r3,1
 1002638:	00801034 	movhi	r2,64
 100263c:	10844404 	addi	r2,r2,4368
 1002640:	10c00035 	stwio	r3,0(r2)
	i2cDelay();
 1002644:	10024f40 	call	10024f4 <i2cDelay>
}
 1002648:	0001883a 	nop
 100264c:	e037883a 	mov	sp,fp
 1002650:	dfc00117 	ldw	ra,4(sp)
 1002654:	df000017 	ldw	fp,0(sp)
 1002658:	dec00204 	addi	sp,sp,8
 100265c:	f800283a 	ret

01002660 <i2cAck>:

void i2cAck(void) {
 1002660:	defffe04 	addi	sp,sp,-8
 1002664:	dfc00115 	stw	ra,4(sp)
 1002668:	df000015 	stw	fp,0(sp)
 100266c:	d839883a 	mov	fp,sp
	SDA_OUT;
 1002670:	00c00044 	movi	r3,1
 1002674:	00801034 	movhi	r2,64
 1002678:	10844504 	addi	r2,r2,4372
 100267c:	10c00035 	stwio	r3,0(r2)

	SCL_L;
 1002680:	0007883a 	mov	r3,zero
 1002684:	00801034 	movhi	r2,64
 1002688:	10844004 	addi	r2,r2,4352
 100268c:	10c00035 	stwio	r3,0(r2)
	i2cDelay();
 1002690:	10024f40 	call	10024f4 <i2cDelay>
	SDA_L;
 1002694:	0007883a 	mov	r3,zero
 1002698:	00801034 	movhi	r2,64
 100269c:	10844404 	addi	r2,r2,4368
 10026a0:	10c00035 	stwio	r3,0(r2)
	i2cDelay();
 10026a4:	10024f40 	call	10024f4 <i2cDelay>
	SCL_H;
 10026a8:	00c00044 	movi	r3,1
 10026ac:	00801034 	movhi	r2,64
 10026b0:	10844004 	addi	r2,r2,4352
 10026b4:	10c00035 	stwio	r3,0(r2)
	i2cDelay();
 10026b8:	10024f40 	call	10024f4 <i2cDelay>
	SCL_L;
 10026bc:	0007883a 	mov	r3,zero
 10026c0:	00801034 	movhi	r2,64
 10026c4:	10844004 	addi	r2,r2,4352
 10026c8:	10c00035 	stwio	r3,0(r2)
	i2cDelay();
 10026cc:	10024f40 	call	10024f4 <i2cDelay>
}
 10026d0:	0001883a 	nop
 10026d4:	e037883a 	mov	sp,fp
 10026d8:	dfc00117 	ldw	ra,4(sp)
 10026dc:	df000017 	ldw	fp,0(sp)
 10026e0:	dec00204 	addi	sp,sp,8
 10026e4:	f800283a 	ret

010026e8 <i2cNoAck>:

void i2cNoAck(void) {
 10026e8:	defffe04 	addi	sp,sp,-8
 10026ec:	dfc00115 	stw	ra,4(sp)
 10026f0:	df000015 	stw	fp,0(sp)
 10026f4:	d839883a 	mov	fp,sp
	SDA_OUT;
 10026f8:	00c00044 	movi	r3,1
 10026fc:	00801034 	movhi	r2,64
 1002700:	10844504 	addi	r2,r2,4372
 1002704:	10c00035 	stwio	r3,0(r2)

	SCL_L;
 1002708:	0007883a 	mov	r3,zero
 100270c:	00801034 	movhi	r2,64
 1002710:	10844004 	addi	r2,r2,4352
 1002714:	10c00035 	stwio	r3,0(r2)
	i2cDelay();
 1002718:	10024f40 	call	10024f4 <i2cDelay>
	SDA_H;
 100271c:	00c00044 	movi	r3,1
 1002720:	00801034 	movhi	r2,64
 1002724:	10844404 	addi	r2,r2,4368
 1002728:	10c00035 	stwio	r3,0(r2)
	i2cDelay();
 100272c:	10024f40 	call	10024f4 <i2cDelay>
	SCL_H;
 1002730:	00c00044 	movi	r3,1
 1002734:	00801034 	movhi	r2,64
 1002738:	10844004 	addi	r2,r2,4352
 100273c:	10c00035 	stwio	r3,0(r2)
	i2cDelay();
 1002740:	10024f40 	call	10024f4 <i2cDelay>
	SCL_L;
 1002744:	0007883a 	mov	r3,zero
 1002748:	00801034 	movhi	r2,64
 100274c:	10844004 	addi	r2,r2,4352
 1002750:	10c00035 	stwio	r3,0(r2)
	i2cDelay();
 1002754:	10024f40 	call	10024f4 <i2cDelay>
}
 1002758:	0001883a 	nop
 100275c:	e037883a 	mov	sp,fp
 1002760:	dfc00117 	ldw	ra,4(sp)
 1002764:	df000017 	ldw	fp,0(sp)
 1002768:	dec00204 	addi	sp,sp,8
 100276c:	f800283a 	ret

01002770 <i2cWaitAck>:

bool i2cWaitAck(void) {
 1002770:	defffe04 	addi	sp,sp,-8
 1002774:	dfc00115 	stw	ra,4(sp)
 1002778:	df000015 	stw	fp,0(sp)
 100277c:	d839883a 	mov	fp,sp
	SDA_OUT;
 1002780:	00c00044 	movi	r3,1
 1002784:	00801034 	movhi	r2,64
 1002788:	10844504 	addi	r2,r2,4372
 100278c:	10c00035 	stwio	r3,0(r2)

	SCL_L;
 1002790:	0007883a 	mov	r3,zero
 1002794:	00801034 	movhi	r2,64
 1002798:	10844004 	addi	r2,r2,4352
 100279c:	10c00035 	stwio	r3,0(r2)
	i2cDelay();
 10027a0:	10024f40 	call	10024f4 <i2cDelay>
	SDA_H;
 10027a4:	00c00044 	movi	r3,1
 10027a8:	00801034 	movhi	r2,64
 10027ac:	10844404 	addi	r2,r2,4368
 10027b0:	10c00035 	stwio	r3,0(r2)
	i2cDelay();
 10027b4:	10024f40 	call	10024f4 <i2cDelay>
	SCL_H;
 10027b8:	00c00044 	movi	r3,1
 10027bc:	00801034 	movhi	r2,64
 10027c0:	10844004 	addi	r2,r2,4352
 10027c4:	10c00035 	stwio	r3,0(r2)
	i2cDelay();
 10027c8:	10024f40 	call	10024f4 <i2cDelay>

	SDA_IN;
 10027cc:	0007883a 	mov	r3,zero
 10027d0:	00801034 	movhi	r2,64
 10027d4:	10844504 	addi	r2,r2,4372
 10027d8:	10c00035 	stwio	r3,0(r2)
	if (SDA_R) {
 10027dc:	00801034 	movhi	r2,64
 10027e0:	10844404 	addi	r2,r2,4368
 10027e4:	10800037 	ldwio	r2,0(r2)
 10027e8:	10000726 	beq	r2,zero,1002808 <i2cWaitAck+0x98>
		SCL_L;
 10027ec:	0007883a 	mov	r3,zero
 10027f0:	00801034 	movhi	r2,64
 10027f4:	10844004 	addi	r2,r2,4352
 10027f8:	10c00035 	stwio	r3,0(r2)
		i2cDelay();
 10027fc:	10024f40 	call	10024f4 <i2cDelay>
		return false;
 1002800:	0005883a 	mov	r2,zero
 1002804:	00000606 	br	1002820 <i2cWaitAck+0xb0>
	}
	SCL_L;
 1002808:	0007883a 	mov	r3,zero
 100280c:	00801034 	movhi	r2,64
 1002810:	10844004 	addi	r2,r2,4352
 1002814:	10c00035 	stwio	r3,0(r2)
	i2cDelay();
 1002818:	10024f40 	call	10024f4 <i2cDelay>
	return true;
 100281c:	00800044 	movi	r2,1
}
 1002820:	e037883a 	mov	sp,fp
 1002824:	dfc00117 	ldw	ra,4(sp)
 1002828:	df000017 	ldw	fp,0(sp)
 100282c:	dec00204 	addi	sp,sp,8
 1002830:	f800283a 	ret

01002834 <i2cSendByte>:

void i2cSendByte(u8 byte) {
 1002834:	defffc04 	addi	sp,sp,-16
 1002838:	dfc00315 	stw	ra,12(sp)
 100283c:	df000215 	stw	fp,8(sp)
 1002840:	df000204 	addi	fp,sp,8
 1002844:	2005883a 	mov	r2,r4
 1002848:	e0bfff05 	stb	r2,-4(fp)
	u8 i = 8;
 100284c:	00800204 	movi	r2,8
 1002850:	e0bffe05 	stb	r2,-8(fp)

	SDA_OUT;
 1002854:	00c00044 	movi	r3,1
 1002858:	00801034 	movhi	r2,64
 100285c:	10844504 	addi	r2,r2,4372
 1002860:	10c00035 	stwio	r3,0(r2)
	while (i--) {
 1002864:	00001c06 	br	10028d8 <i2cSendByte+0xa4>
		SCL_L;
 1002868:	0007883a 	mov	r3,zero
 100286c:	00801034 	movhi	r2,64
 1002870:	10844004 	addi	r2,r2,4352
 1002874:	10c00035 	stwio	r3,0(r2)
		i2cDelay();
 1002878:	10024f40 	call	10024f4 <i2cDelay>
		if (byte & 0x80) {
 100287c:	e0bfff03 	ldbu	r2,-4(fp)
 1002880:	10803fcc 	andi	r2,r2,255
 1002884:	1080201c 	xori	r2,r2,128
 1002888:	10bfe004 	addi	r2,r2,-128
 100288c:	1000050e 	bge	r2,zero,10028a4 <i2cSendByte+0x70>
			SDA_H;
 1002890:	00c00044 	movi	r3,1
 1002894:	00801034 	movhi	r2,64
 1002898:	10844404 	addi	r2,r2,4368
 100289c:	10c00035 	stwio	r3,0(r2)
 10028a0:	00000406 	br	10028b4 <i2cSendByte+0x80>
		} else {
			SDA_L;
 10028a4:	0007883a 	mov	r3,zero
 10028a8:	00801034 	movhi	r2,64
 10028ac:	10844404 	addi	r2,r2,4368
 10028b0:	10c00035 	stwio	r3,0(r2)
		}
		byte <<= 1;
 10028b4:	e0bfff03 	ldbu	r2,-4(fp)
 10028b8:	1085883a 	add	r2,r2,r2
 10028bc:	e0bfff05 	stb	r2,-4(fp)
		i2cDelay();
 10028c0:	10024f40 	call	10024f4 <i2cDelay>
		SCL_H;
 10028c4:	00c00044 	movi	r3,1
 10028c8:	00801034 	movhi	r2,64
 10028cc:	10844004 	addi	r2,r2,4352
 10028d0:	10c00035 	stwio	r3,0(r2)
		i2cDelay();
 10028d4:	10024f40 	call	10024f4 <i2cDelay>

void i2cSendByte(u8 byte) {
	u8 i = 8;

	SDA_OUT;
	while (i--) {
 10028d8:	e0bffe03 	ldbu	r2,-8(fp)
 10028dc:	10ffffc4 	addi	r3,r2,-1
 10028e0:	e0fffe05 	stb	r3,-8(fp)
 10028e4:	10803fcc 	andi	r2,r2,255
 10028e8:	103fdf1e 	bne	r2,zero,1002868 <__alt_data_end+0xff802868>
		byte <<= 1;
		i2cDelay();
		SCL_H;
		i2cDelay();
	}
	SCL_L;
 10028ec:	0007883a 	mov	r3,zero
 10028f0:	00801034 	movhi	r2,64
 10028f4:	10844004 	addi	r2,r2,4352
 10028f8:	10c00035 	stwio	r3,0(r2)
}
 10028fc:	0001883a 	nop
 1002900:	e037883a 	mov	sp,fp
 1002904:	dfc00117 	ldw	ra,4(sp)
 1002908:	df000017 	ldw	fp,0(sp)
 100290c:	dec00204 	addi	sp,sp,8
 1002910:	f800283a 	ret

01002914 <i2cReadByte>:

u8 i2cReadByte(void) {
 1002914:	defffd04 	addi	sp,sp,-12
 1002918:	dfc00215 	stw	ra,8(sp)
 100291c:	df000115 	stw	fp,4(sp)
 1002920:	df000104 	addi	fp,sp,4
	u8 i = 8;
 1002924:	00800204 	movi	r2,8
 1002928:	e0bfff05 	stb	r2,-4(fp)
	u8 byte = 0;
 100292c:	e03fff45 	stb	zero,-3(fp)

	SDA_OUT;
 1002930:	00c00044 	movi	r3,1
 1002934:	00801034 	movhi	r2,64
 1002938:	10844504 	addi	r2,r2,4372
 100293c:	10c00035 	stwio	r3,0(r2)
	SDA_H;
 1002940:	00c00044 	movi	r3,1
 1002944:	00801034 	movhi	r2,64
 1002948:	10844404 	addi	r2,r2,4368
 100294c:	10c00035 	stwio	r3,0(r2)

	SDA_IN;
 1002950:	0007883a 	mov	r3,zero
 1002954:	00801034 	movhi	r2,64
 1002958:	10844504 	addi	r2,r2,4372
 100295c:	10c00035 	stwio	r3,0(r2)
	while (i--) {
 1002960:	00001406 	br	10029b4 <i2cReadByte+0xa0>
		byte <<= 1;
 1002964:	e0bfff43 	ldbu	r2,-3(fp)
 1002968:	1085883a 	add	r2,r2,r2
 100296c:	e0bfff45 	stb	r2,-3(fp)
		SCL_L;
 1002970:	0007883a 	mov	r3,zero
 1002974:	00801034 	movhi	r2,64
 1002978:	10844004 	addi	r2,r2,4352
 100297c:	10c00035 	stwio	r3,0(r2)
		i2cDelay();
 1002980:	10024f40 	call	10024f4 <i2cDelay>
		SCL_H;
 1002984:	00c00044 	movi	r3,1
 1002988:	00801034 	movhi	r2,64
 100298c:	10844004 	addi	r2,r2,4352
 1002990:	10c00035 	stwio	r3,0(r2)
		i2cDelay();
 1002994:	10024f40 	call	10024f4 <i2cDelay>
		if (SDA_R) {
 1002998:	00801034 	movhi	r2,64
 100299c:	10844404 	addi	r2,r2,4368
 10029a0:	10800037 	ldwio	r2,0(r2)
 10029a4:	10000326 	beq	r2,zero,10029b4 <i2cReadByte+0xa0>
			byte |= 0x01;
 10029a8:	e0bfff43 	ldbu	r2,-3(fp)
 10029ac:	10800054 	ori	r2,r2,1
 10029b0:	e0bfff45 	stb	r2,-3(fp)

	SDA_OUT;
	SDA_H;

	SDA_IN;
	while (i--) {
 10029b4:	e0bfff03 	ldbu	r2,-4(fp)
 10029b8:	10ffffc4 	addi	r3,r2,-1
 10029bc:	e0ffff05 	stb	r3,-4(fp)
 10029c0:	10803fcc 	andi	r2,r2,255
 10029c4:	103fe71e 	bne	r2,zero,1002964 <__alt_data_end+0xff802964>
		i2cDelay();
		if (SDA_R) {
			byte |= 0x01;
		}
	}
	SCL_L;
 10029c8:	0007883a 	mov	r3,zero
 10029cc:	00801034 	movhi	r2,64
 10029d0:	10844004 	addi	r2,r2,4352
 10029d4:	10c00035 	stwio	r3,0(r2)
	return byte;
 10029d8:	e0bfff43 	ldbu	r2,-3(fp)
}
 10029dc:	e037883a 	mov	sp,fp
 10029e0:	dfc00117 	ldw	ra,4(sp)
 10029e4:	df000017 	ldw	fp,0(sp)
 10029e8:	dec00204 	addi	sp,sp,8
 10029ec:	f800283a 	ret

010029f0 <i2cWriteReg>:

bool i2cWriteReg(u8 slave, u8 reg, u8 data) {
 10029f0:	defffb04 	addi	sp,sp,-20
 10029f4:	dfc00415 	stw	ra,16(sp)
 10029f8:	df000315 	stw	fp,12(sp)
 10029fc:	df000304 	addi	fp,sp,12
 1002a00:	2807883a 	mov	r3,r5
 1002a04:	3005883a 	mov	r2,r6
 1002a08:	e13ffd05 	stb	r4,-12(fp)
 1002a0c:	e0fffe05 	stb	r3,-8(fp)
 1002a10:	e0bfff05 	stb	r2,-4(fp)
	if (!i2cStart())
 1002a14:	10025240 	call	1002524 <i2cStart>
 1002a18:	1000021e 	bne	r2,zero,1002a24 <i2cWriteReg+0x34>
		return false;
 1002a1c:	0005883a 	mov	r2,zero
 1002a20:	00001206 	br	1002a6c <i2cWriteReg+0x7c>
	i2cSendByte(slave);
 1002a24:	e0bffd03 	ldbu	r2,-12(fp)
 1002a28:	1009883a 	mov	r4,r2
 1002a2c:	10028340 	call	1002834 <i2cSendByte>
	if (!i2cWaitAck()) {
 1002a30:	10027700 	call	1002770 <i2cWaitAck>
 1002a34:	1000031e 	bne	r2,zero,1002a44 <i2cWriteReg+0x54>
		i2cStop();
 1002a38:	10025d80 	call	10025d8 <i2cStop>
		return false;
 1002a3c:	0005883a 	mov	r2,zero
 1002a40:	00000a06 	br	1002a6c <i2cWriteReg+0x7c>
	}
	i2cSendByte(reg);
 1002a44:	e0bffe03 	ldbu	r2,-8(fp)
 1002a48:	1009883a 	mov	r4,r2
 1002a4c:	10028340 	call	1002834 <i2cSendByte>
	i2cWaitAck();
 1002a50:	10027700 	call	1002770 <i2cWaitAck>
	i2cSendByte(data);
 1002a54:	e0bfff03 	ldbu	r2,-4(fp)
 1002a58:	1009883a 	mov	r4,r2
 1002a5c:	10028340 	call	1002834 <i2cSendByte>
	i2cWaitAck();
 1002a60:	10027700 	call	1002770 <i2cWaitAck>
	i2cStop();
 1002a64:	10025d80 	call	10025d8 <i2cStop>
	return true;
 1002a68:	00800044 	movi	r2,1
}
 1002a6c:	e037883a 	mov	sp,fp
 1002a70:	dfc00117 	ldw	ra,4(sp)
 1002a74:	df000017 	ldw	fp,0(sp)
 1002a78:	dec00204 	addi	sp,sp,8
 1002a7c:	f800283a 	ret

01002a80 <i2cWriteMulti>:

bool i2cWriteMulti(u8 slave, u8 reg, u8 *buff, u8 cnt) {
 1002a80:	defff904 	addi	sp,sp,-28
 1002a84:	dfc00615 	stw	ra,24(sp)
 1002a88:	df000515 	stw	fp,20(sp)
 1002a8c:	df000504 	addi	fp,sp,20
 1002a90:	2807883a 	mov	r3,r5
 1002a94:	e1bffe15 	stw	r6,-8(fp)
 1002a98:	3805883a 	mov	r2,r7
 1002a9c:	e13ffc05 	stb	r4,-16(fp)
 1002aa0:	e0fffd05 	stb	r3,-12(fp)
 1002aa4:	e0bfff05 	stb	r2,-4(fp)
	u8 k = 0;
 1002aa8:	e03ffb05 	stb	zero,-20(fp)
	if (!i2cStart())
 1002aac:	10025240 	call	1002524 <i2cStart>
 1002ab0:	1000021e 	bne	r2,zero,1002abc <i2cWriteMulti+0x3c>
		return false;
 1002ab4:	0005883a 	mov	r2,zero
 1002ab8:	00001f06 	br	1002b38 <i2cWriteMulti+0xb8>
	i2cSendByte(slave);
 1002abc:	e0bffc03 	ldbu	r2,-16(fp)
 1002ac0:	1009883a 	mov	r4,r2
 1002ac4:	10028340 	call	1002834 <i2cSendByte>
	if (!i2cWaitAck()) {
 1002ac8:	10027700 	call	1002770 <i2cWaitAck>
 1002acc:	1000031e 	bne	r2,zero,1002adc <i2cWriteMulti+0x5c>
		i2cStop();
 1002ad0:	10025d80 	call	10025d8 <i2cStop>
		return false;
 1002ad4:	0005883a 	mov	r2,zero
 1002ad8:	00001706 	br	1002b38 <i2cWriteMulti+0xb8>
	}
	i2cSendByte(reg);
 1002adc:	e0bffd03 	ldbu	r2,-12(fp)
 1002ae0:	1009883a 	mov	r4,r2
 1002ae4:	10028340 	call	1002834 <i2cSendByte>
	i2cWaitAck();
 1002ae8:	10027700 	call	1002770 <i2cWaitAck>

	while (cnt--) {
 1002aec:	00000b06 	br	1002b1c <i2cWriteMulti+0x9c>
		i2cSendByte(buff[k++]);
 1002af0:	e0bffb03 	ldbu	r2,-20(fp)
 1002af4:	10c00044 	addi	r3,r2,1
 1002af8:	e0fffb05 	stb	r3,-20(fp)
 1002afc:	10803fcc 	andi	r2,r2,255
 1002b00:	e0fffe17 	ldw	r3,-8(fp)
 1002b04:	1885883a 	add	r2,r3,r2
 1002b08:	10800003 	ldbu	r2,0(r2)
 1002b0c:	10803fcc 	andi	r2,r2,255
 1002b10:	1009883a 	mov	r4,r2
 1002b14:	10028340 	call	1002834 <i2cSendByte>
		i2cWaitAck();
 1002b18:	10027700 	call	1002770 <i2cWaitAck>
		return false;
	}
	i2cSendByte(reg);
	i2cWaitAck();

	while (cnt--) {
 1002b1c:	e0bfff03 	ldbu	r2,-4(fp)
 1002b20:	10ffffc4 	addi	r3,r2,-1
 1002b24:	e0ffff05 	stb	r3,-4(fp)
 1002b28:	10803fcc 	andi	r2,r2,255
 1002b2c:	103ff01e 	bne	r2,zero,1002af0 <__alt_data_end+0xff802af0>
		i2cSendByte(buff[k++]);
		i2cWaitAck();
	}
	i2cStop();
 1002b30:	10025d80 	call	10025d8 <i2cStop>
	return true;
 1002b34:	00800044 	movi	r2,1
}
 1002b38:	e037883a 	mov	sp,fp
 1002b3c:	dfc00117 	ldw	ra,4(sp)
 1002b40:	df000017 	ldw	fp,0(sp)
 1002b44:	dec00204 	addi	sp,sp,8
 1002b48:	f800283a 	ret

01002b4c <i2cReadReg>:

u8 i2cReadReg(u8 slave, u8 reg) {
 1002b4c:	defffb04 	addi	sp,sp,-20
 1002b50:	dfc00415 	stw	ra,16(sp)
 1002b54:	df000315 	stw	fp,12(sp)
 1002b58:	df000304 	addi	fp,sp,12
 1002b5c:	2007883a 	mov	r3,r4
 1002b60:	2805883a 	mov	r2,r5
 1002b64:	e0fffe05 	stb	r3,-8(fp)
 1002b68:	e0bfff05 	stb	r2,-4(fp)
	u8 data;
	if (!i2cStart())
 1002b6c:	10025240 	call	1002524 <i2cStart>
 1002b70:	1000021e 	bne	r2,zero,1002b7c <i2cReadReg+0x30>
		return false;
 1002b74:	0005883a 	mov	r2,zero
 1002b78:	00001806 	br	1002bdc <i2cReadReg+0x90>
	i2cSendByte(slave);
 1002b7c:	e0bffe03 	ldbu	r2,-8(fp)
 1002b80:	1009883a 	mov	r4,r2
 1002b84:	10028340 	call	1002834 <i2cSendByte>
	if (!i2cWaitAck()) {
 1002b88:	10027700 	call	1002770 <i2cWaitAck>
 1002b8c:	1000031e 	bne	r2,zero,1002b9c <i2cReadReg+0x50>
		i2cStop();
 1002b90:	10025d80 	call	10025d8 <i2cStop>
		return false;
 1002b94:	0005883a 	mov	r2,zero
 1002b98:	00001006 	br	1002bdc <i2cReadReg+0x90>
	}
	i2cSendByte((u8) reg);
 1002b9c:	e0bfff03 	ldbu	r2,-4(fp)
 1002ba0:	1009883a 	mov	r4,r2
 1002ba4:	10028340 	call	1002834 <i2cSendByte>
	i2cWaitAck();
 1002ba8:	10027700 	call	1002770 <i2cWaitAck>
	i2cStart();
 1002bac:	10025240 	call	1002524 <i2cStart>
	i2cSendByte(slave + 1);
 1002bb0:	e0bffe03 	ldbu	r2,-8(fp)
 1002bb4:	10800044 	addi	r2,r2,1
 1002bb8:	10803fcc 	andi	r2,r2,255
 1002bbc:	1009883a 	mov	r4,r2
 1002bc0:	10028340 	call	1002834 <i2cSendByte>
	i2cWaitAck();
 1002bc4:	10027700 	call	1002770 <i2cWaitAck>

	data = i2cReadByte();
 1002bc8:	10029140 	call	1002914 <i2cReadByte>
 1002bcc:	e0bffd05 	stb	r2,-12(fp)
	i2cNoAck();
 1002bd0:	10026e80 	call	10026e8 <i2cNoAck>
	i2cStop();
 1002bd4:	10025d80 	call	10025d8 <i2cStop>
	return data;
 1002bd8:	e0bffd03 	ldbu	r2,-12(fp)
}
 1002bdc:	e037883a 	mov	sp,fp
 1002be0:	dfc00117 	ldw	ra,4(sp)
 1002be4:	df000017 	ldw	fp,0(sp)
 1002be8:	dec00204 	addi	sp,sp,8
 1002bec:	f800283a 	ret

01002bf0 <i2cReadMulti>:

bool i2cReadMulti(u8 slave, u8 reg, u8 *buff, u8 cnt) {
 1002bf0:	defff804 	addi	sp,sp,-32
 1002bf4:	dfc00715 	stw	ra,28(sp)
 1002bf8:	df000615 	stw	fp,24(sp)
 1002bfc:	dc000515 	stw	r16,20(sp)
 1002c00:	df000604 	addi	fp,sp,24
 1002c04:	2807883a 	mov	r3,r5
 1002c08:	e1bffd15 	stw	r6,-12(fp)
 1002c0c:	3805883a 	mov	r2,r7
 1002c10:	e13ffb05 	stb	r4,-20(fp)
 1002c14:	e0fffc05 	stb	r3,-16(fp)
 1002c18:	e0bffe05 	stb	r2,-8(fp)
	u8 k = 0;
 1002c1c:	e03ffa05 	stb	zero,-24(fp)
	if (!i2cStart())
 1002c20:	10025240 	call	1002524 <i2cStart>
 1002c24:	1000021e 	bne	r2,zero,1002c30 <i2cReadMulti+0x40>
		return false;
 1002c28:	0005883a 	mov	r2,zero
 1002c2c:	00002706 	br	1002ccc <i2cReadMulti+0xdc>
	i2cSendByte(slave);
 1002c30:	e0bffb03 	ldbu	r2,-20(fp)
 1002c34:	1009883a 	mov	r4,r2
 1002c38:	10028340 	call	1002834 <i2cSendByte>
	if (!i2cWaitAck()) {
 1002c3c:	10027700 	call	1002770 <i2cWaitAck>
 1002c40:	1000031e 	bne	r2,zero,1002c50 <i2cReadMulti+0x60>
		i2cStop();
 1002c44:	10025d80 	call	10025d8 <i2cStop>
		return false;
 1002c48:	0005883a 	mov	r2,zero
 1002c4c:	00001f06 	br	1002ccc <i2cReadMulti+0xdc>
	}
	i2cSendByte((u8) reg);
 1002c50:	e0bffc03 	ldbu	r2,-16(fp)
 1002c54:	1009883a 	mov	r4,r2
 1002c58:	10028340 	call	1002834 <i2cSendByte>
	i2cWaitAck();
 1002c5c:	10027700 	call	1002770 <i2cWaitAck>
	i2cStart();
 1002c60:	10025240 	call	1002524 <i2cStart>
	i2cSendByte(slave + 1);
 1002c64:	e0bffb03 	ldbu	r2,-20(fp)
 1002c68:	10800044 	addi	r2,r2,1
 1002c6c:	10803fcc 	andi	r2,r2,255
 1002c70:	1009883a 	mov	r4,r2
 1002c74:	10028340 	call	1002834 <i2cSendByte>
	i2cWaitAck();
 1002c78:	10027700 	call	1002770 <i2cWaitAck>

	while (cnt--) {
 1002c7c:	00000b06 	br	1002cac <i2cReadMulti+0xbc>
		buff[k++] = i2cReadByte();
 1002c80:	e0bffa03 	ldbu	r2,-24(fp)
 1002c84:	10c00044 	addi	r3,r2,1
 1002c88:	e0fffa05 	stb	r3,-24(fp)
 1002c8c:	10803fcc 	andi	r2,r2,255
 1002c90:	e0fffd17 	ldw	r3,-12(fp)
 1002c94:	18a1883a 	add	r16,r3,r2
 1002c98:	10029140 	call	1002914 <i2cReadByte>
 1002c9c:	80800005 	stb	r2,0(r16)
		if (cnt)
 1002ca0:	e0bffe03 	ldbu	r2,-8(fp)
 1002ca4:	10000126 	beq	r2,zero,1002cac <i2cReadMulti+0xbc>
			i2cAck();
 1002ca8:	10026600 	call	1002660 <i2cAck>
	i2cWaitAck();
	i2cStart();
	i2cSendByte(slave + 1);
	i2cWaitAck();

	while (cnt--) {
 1002cac:	e0bffe03 	ldbu	r2,-8(fp)
 1002cb0:	10ffffc4 	addi	r3,r2,-1
 1002cb4:	e0fffe05 	stb	r3,-8(fp)
 1002cb8:	10803fcc 	andi	r2,r2,255
 1002cbc:	103ff01e 	bne	r2,zero,1002c80 <__alt_data_end+0xff802c80>
		buff[k++] = i2cReadByte();
		if (cnt)
			i2cAck();
	}
	i2cNoAck();
 1002cc0:	10026e80 	call	10026e8 <i2cNoAck>
	i2cStop();
 1002cc4:	10025d80 	call	10025d8 <i2cStop>

	return true;
 1002cc8:	00800044 	movi	r2,1
}
 1002ccc:	e6ffff04 	addi	sp,fp,-4
 1002cd0:	dfc00217 	ldw	ra,8(sp)
 1002cd4:	df000117 	ldw	fp,4(sp)
 1002cd8:	dc000017 	ldw	r16,0(sp)
 1002cdc:	dec00304 	addi	sp,sp,12
 1002ce0:	f800283a 	ret

01002ce4 <keyInit>:
 *      Author: hailiang
 */

#include "key.h"

int keyInit(void) {
 1002ce4:	defffe04 	addi	sp,sp,-8
 1002ce8:	dfc00115 	stw	ra,4(sp)
 1002cec:	df000015 	stw	fp,0(sp)
 1002cf0:	d839883a 	mov	fp,sp
	IOWR(KEYIRQ_BASE, 2, 0x07);
 1002cf4:	00c001c4 	movi	r3,7
 1002cf8:	00801034 	movhi	r2,64
 1002cfc:	10843e04 	addi	r2,r2,4344
 1002d00:	10c00035 	stwio	r3,0(r2)
	IOWR(KEYIRQ_BASE, 3, 0x00);
 1002d04:	0007883a 	mov	r3,zero
 1002d08:	00801034 	movhi	r2,64
 1002d0c:	10843f04 	addi	r2,r2,4348
 1002d10:	10c00035 	stwio	r3,0(r2)
	return alt_irq_register(KEYIRQ_IRQ, NULL, (void *) keyIsr);
 1002d14:	01804034 	movhi	r6,256
 1002d18:	318b4f04 	addi	r6,r6,11580
 1002d1c:	000b883a 	mov	r5,zero
 1002d20:	010000c4 	movi	r4,3
 1002d24:	101a8300 	call	101a830 <alt_irq_register>
}
 1002d28:	e037883a 	mov	sp,fp
 1002d2c:	dfc00117 	ldw	ra,4(sp)
 1002d30:	df000017 	ldw	fp,0(sp)
 1002d34:	dec00204 	addi	sp,sp,8
 1002d38:	f800283a 	ret

01002d3c <keyIsr>:

void keyIsr(void* isr_context) {
 1002d3c:	defffb04 	addi	sp,sp,-20
 1002d40:	dfc00415 	stw	ra,16(sp)
 1002d44:	df000315 	stw	fp,12(sp)
 1002d48:	df000304 	addi	fp,sp,12
 1002d4c:	e13fff15 	stw	r4,-4(fp)
	IOWR(KEYIRQ_BASE, 3, 0x00);
 1002d50:	0007883a 	mov	r3,zero
 1002d54:	00801034 	movhi	r2,64
 1002d58:	10843f04 	addi	r2,r2,4348
 1002d5c:	10c00035 	stwio	r3,0(r2)

	volatile u8 keyirq;
	volatile u8 keyvalue;

	keyirq = IORD(KEYIRQ_BASE, 0) & 0xff;
 1002d60:	00801034 	movhi	r2,64
 1002d64:	10843c04 	addi	r2,r2,4336
 1002d68:	10800037 	ldwio	r2,0(r2)
 1002d6c:	e0bffe05 	stb	r2,-8(fp)
	keyvalue = IORD(KEYVALUE_BASE, 0) & 0xff;
 1002d70:	00801034 	movhi	r2,64
 1002d74:	10843804 	addi	r2,r2,4320
 1002d78:	10800037 	ldwio	r2,0(r2)
 1002d7c:	e0bffe45 	stb	r2,-7(fp)

    if(keyirq==0x1 && keyvalue==0x5)			//SW1
 1002d80:	e0bffe03 	ldbu	r2,-8(fp)
 1002d84:	10803fcc 	andi	r2,r2,255
 1002d88:	10800058 	cmpnei	r2,r2,1
 1002d8c:	1000041e 	bne	r2,zero,1002da0 <keyIsr+0x64>
 1002d90:	e0bffe43 	ldbu	r2,-7(fp)
 1002d94:	10803fcc 	andi	r2,r2,255
 1002d98:	10800158 	cmpnei	r2,r2,5
 1002d9c:	10001726 	beq	r2,zero,1002dfc <keyIsr+0xc0>
    {

    }

    else  if(keyirq==0x1 && keyvalue==0x6)		//SW2
 1002da0:	e0bffe03 	ldbu	r2,-8(fp)
 1002da4:	10803fcc 	andi	r2,r2,255
 1002da8:	10800058 	cmpnei	r2,r2,1
 1002dac:	1000041e 	bne	r2,zero,1002dc0 <keyIsr+0x84>
 1002db0:	e0bffe43 	ldbu	r2,-7(fp)
 1002db4:	10803fcc 	andi	r2,r2,255
 1002db8:	10800198 	cmpnei	r2,r2,6
 1002dbc:	10000f26 	beq	r2,zero,1002dfc <keyIsr+0xc0>
    {

    }

    ///           //
    else  if(keyirq==0x2)						//Clockwise
 1002dc0:	e0bffe03 	ldbu	r2,-8(fp)
 1002dc4:	10803fcc 	andi	r2,r2,255
 1002dc8:	108000a0 	cmpeqi	r2,r2,2
 1002dcc:	10000b1e 	bne	r2,zero,1002dfc <keyIsr+0xc0>
    {

    }

    else  if(keyirq==0x4)						//Anti-Clockwise
 1002dd0:	e0bffe03 	ldbu	r2,-8(fp)
 1002dd4:	10803fcc 	andi	r2,r2,255
 1002dd8:	10800120 	cmpeqi	r2,r2,4
 1002ddc:	1000071e 	bne	r2,zero,1002dfc <keyIsr+0xc0>
    {

    }

    else
    	lcdRectClear(0, 0, HDP, VDP, BACKGROUND);
 1002de0:	00bfffd4 	movui	r2,65535
 1002de4:	d8800015 	stw	r2,0(sp)
 1002de8:	01c077c4 	movi	r7,479
 1002dec:	0180c7c4 	movi	r6,799
 1002df0:	000b883a 	mov	r5,zero
 1002df4:	0009883a 	mov	r4,zero
 1002df8:	100328c0 	call	100328c <lcdRectClear>

	printf("keyirq = 0x%x, keyvalue = 0x%x\n", keyirq, keyvalue);
 1002dfc:	e0bffe03 	ldbu	r2,-8(fp)
 1002e00:	10803fcc 	andi	r2,r2,255
 1002e04:	e0fffe43 	ldbu	r3,-7(fp)
 1002e08:	18c03fcc 	andi	r3,r3,255
 1002e0c:	180d883a 	mov	r6,r3
 1002e10:	100b883a 	mov	r5,r2
 1002e14:	010040b4 	movhi	r4,258
 1002e18:	2115a704 	addi	r4,r4,22172
 1002e1c:	100cf040 	call	100cf04 <printf>
}
 1002e20:	0001883a 	nop
 1002e24:	e037883a 	mov	sp,fp
 1002e28:	dfc00117 	ldw	ra,4(sp)
 1002e2c:	df000017 	ldw	fp,0(sp)
 1002e30:	dec00204 	addi	sp,sp,8
 1002e34:	f800283a 	ret

01002e38 <lcdInit>:
u8 LINEMODE = 1;
u8 CYCLE = 6;
u8 DUTY = 3;
u8 HLPEN = 0;

int lcdInit(void) {
 1002e38:	defffd04 	addi	sp,sp,-12
 1002e3c:	dfc00215 	stw	ra,8(sp)
 1002e40:	df000115 	stw	fp,4(sp)
 1002e44:	df000104 	addi	fp,sp,4
	lcdWriteCommand(0x00E2);
 1002e48:	01003884 	movi	r4,226
 1002e4c:	10030640 	call	1003064 <lcdWriteCommand>
	lcdWriteData(0x001D);
 1002e50:	01000744 	movi	r4,29
 1002e54:	100309c0 	call	100309c <lcdWriteData>
	lcdWriteData(0x0002);
 1002e58:	01000084 	movi	r4,2
 1002e5c:	100309c0 	call	100309c <lcdWriteData>
	lcdWriteData(0x0004);
 1002e60:	01000104 	movi	r4,4
 1002e64:	100309c0 	call	100309c <lcdWriteData>
	usleep(100);
 1002e68:	01001904 	movi	r4,100
 1002e6c:	101aeb00 	call	101aeb0 <usleep>
	lcdWriteCommand(0x00E0);
 1002e70:	01003804 	movi	r4,224
 1002e74:	10030640 	call	1003064 <lcdWriteCommand>
	lcdWriteData(0x0001);
 1002e78:	01000044 	movi	r4,1
 1002e7c:	100309c0 	call	100309c <lcdWriteData>
	usleep(2000);
 1002e80:	0101f404 	movi	r4,2000
 1002e84:	101aeb00 	call	101aeb0 <usleep>
	lcdWriteCommand(0x00E0);
 1002e88:	01003804 	movi	r4,224
 1002e8c:	10030640 	call	1003064 <lcdWriteCommand>
	lcdWriteData(0x0003);
 1002e90:	010000c4 	movi	r4,3
 1002e94:	100309c0 	call	100309c <lcdWriteData>
	usleep(100);
 1002e98:	01001904 	movi	r4,100
 1002e9c:	101aeb00 	call	101aeb0 <usleep>
	lcdWriteCommand(0x0001);
 1002ea0:	01000044 	movi	r4,1
 1002ea4:	10030640 	call	1003064 <lcdWriteCommand>
	usleep(6000);
 1002ea8:	0105dc04 	movi	r4,6000
 1002eac:	101aeb00 	call	101aeb0 <usleep>

	lcdWriteCommand(0x00E6);
 1002eb0:	01003984 	movi	r4,230
 1002eb4:	10030640 	call	1003064 <lcdWriteCommand>
	lcdWriteData(0x002f);
 1002eb8:	01000bc4 	movi	r4,47
 1002ebc:	100309c0 	call	100309c <lcdWriteData>
	lcdWriteData(0x00ff);
 1002ec0:	01003fc4 	movi	r4,255
 1002ec4:	100309c0 	call	100309c <lcdWriteData>
	lcdWriteData(0x00ff);
 1002ec8:	01003fc4 	movi	r4,255
 1002ecc:	100309c0 	call	100309c <lcdWriteData>

	lcdWriteCommand(0x00B0);
 1002ed0:	01002c04 	movi	r4,176
 1002ed4:	10030640 	call	1003064 <lcdWriteCommand>
	lcdWriteData(0x0020);
 1002ed8:	01000804 	movi	r4,32
 1002edc:	100309c0 	call	100309c <lcdWriteData>
	lcdWriteData(0x0000);
 1002ee0:	0009883a 	mov	r4,zero
 1002ee4:	100309c0 	call	100309c <lcdWriteData>
	lcdWriteData((HDP >> 8) & 0X00FF);
 1002ee8:	010000c4 	movi	r4,3
 1002eec:	100309c0 	call	100309c <lcdWriteData>
	lcdWriteData(HDP & 0X00FF);
 1002ef0:	010007c4 	movi	r4,31
 1002ef4:	100309c0 	call	100309c <lcdWriteData>
	lcdWriteData((VDP >> 8) & 0X00FF);
 1002ef8:	01000044 	movi	r4,1
 1002efc:	100309c0 	call	100309c <lcdWriteData>
	lcdWriteData(VDP & 0X00FF);
 1002f00:	010037c4 	movi	r4,223
 1002f04:	100309c0 	call	100309c <lcdWriteData>
	lcdWriteData(0x0000);
 1002f08:	0009883a 	mov	r4,zero
 1002f0c:	100309c0 	call	100309c <lcdWriteData>

	lcdWriteCommand(0x00B4);
 1002f10:	01002d04 	movi	r4,180
 1002f14:	10030640 	call	1003064 <lcdWriteCommand>
	lcdWriteData((HT >> 8) & 0X00FF);
 1002f18:	01000104 	movi	r4,4
 1002f1c:	100309c0 	call	100309c <lcdWriteData>
	lcdWriteData(HT & 0X00FF);
 1002f20:	010007c4 	movi	r4,31
 1002f24:	100309c0 	call	100309c <lcdWriteData>
	lcdWriteData((HPS >> 8) & 0X00FF);
 1002f28:	0009883a 	mov	r4,zero
 1002f2c:	100309c0 	call	100309c <lcdWriteData>
	lcdWriteData(HPS & 0X00FF);
 1002f30:	01000b84 	movi	r4,46
 1002f34:	100309c0 	call	100309c <lcdWriteData>
	lcdWriteData(HPW);
 1002f38:	0009883a 	mov	r4,zero
 1002f3c:	100309c0 	call	100309c <lcdWriteData>
	lcdWriteData((LPS >> 8) & 0X00FF);
 1002f40:	0009883a 	mov	r4,zero
 1002f44:	100309c0 	call	100309c <lcdWriteData>
	lcdWriteData(LPS & 0X00FF);
 1002f48:	0009883a 	mov	r4,zero
 1002f4c:	100309c0 	call	100309c <lcdWriteData>
	lcdWriteData(0x0000);
 1002f50:	0009883a 	mov	r4,zero
 1002f54:	100309c0 	call	100309c <lcdWriteData>

	lcdWriteCommand(0x00B6);
 1002f58:	01002d84 	movi	r4,182
 1002f5c:	10030640 	call	1003064 <lcdWriteCommand>
	lcdWriteData((VT >> 8) & 0X00FF);
 1002f60:	01000084 	movi	r4,2
 1002f64:	100309c0 	call	100309c <lcdWriteData>
	lcdWriteData(VT & 0X00FF);
 1002f68:	01000304 	movi	r4,12
 1002f6c:	100309c0 	call	100309c <lcdWriteData>
	lcdWriteData((VPS >> 8) & 0X00FF);
 1002f70:	0009883a 	mov	r4,zero
 1002f74:	100309c0 	call	100309c <lcdWriteData>
	lcdWriteData(VPS & 0X00FF);
 1002f78:	010005c4 	movi	r4,23
 1002f7c:	100309c0 	call	100309c <lcdWriteData>
	lcdWriteData(VPW);
 1002f80:	0009883a 	mov	r4,zero
 1002f84:	100309c0 	call	100309c <lcdWriteData>
	lcdWriteData((FPS >> 8) & 0X00FF);
 1002f88:	0009883a 	mov	r4,zero
 1002f8c:	100309c0 	call	100309c <lcdWriteData>
	lcdWriteData(FPS & 0X00FF);
 1002f90:	0009883a 	mov	r4,zero
 1002f94:	100309c0 	call	100309c <lcdWriteData>

	lcdWriteCommand(0x00F0);
 1002f98:	01003c04 	movi	r4,240
 1002f9c:	10030640 	call	1003064 <lcdWriteCommand>
	lcdWriteData(0x0003);
 1002fa0:	010000c4 	movi	r4,3
 1002fa4:	100309c0 	call	100309c <lcdWriteData>

	lcdWriteCommand(0x0029);
 1002fa8:	01000a44 	movi	r4,41
 1002fac:	10030640 	call	1003064 <lcdWriteCommand>

	lcdWriteCommand(0x00D0);
 1002fb0:	01003404 	movi	r4,208
 1002fb4:	10030640 	call	1003064 <lcdWriteCommand>
	lcdWriteData(0x0000);
 1002fb8:	0009883a 	mov	r4,zero
 1002fbc:	100309c0 	call	100309c <lcdWriteData>

	lcdWriteCommand(0x00BE);
 1002fc0:	01002f84 	movi	r4,190
 1002fc4:	10030640 	call	1003064 <lcdWriteCommand>
	lcdWriteData(0x0005);
 1002fc8:	01000144 	movi	r4,5
 1002fcc:	100309c0 	call	100309c <lcdWriteData>
	lcdWriteData(0x0090);
 1002fd0:	01002404 	movi	r4,144
 1002fd4:	100309c0 	call	100309c <lcdWriteData>
	lcdWriteData(0x0001);
 1002fd8:	01000044 	movi	r4,1
 1002fdc:	100309c0 	call	100309c <lcdWriteData>
	lcdWriteData(0x00FF);
 1002fe0:	01003fc4 	movi	r4,255
 1002fe4:	100309c0 	call	100309c <lcdWriteData>
	lcdWriteData(0x0000);
 1002fe8:	0009883a 	mov	r4,zero
 1002fec:	100309c0 	call	100309c <lcdWriteData>
	lcdWriteData(0x0000);
 1002ff0:	0009883a 	mov	r4,zero
 1002ff4:	100309c0 	call	100309c <lcdWriteData>

	lcdWriteCommand(0x00B8);
 1002ff8:	01002e04 	movi	r4,184
 1002ffc:	10030640 	call	1003064 <lcdWriteCommand>
	lcdWriteData(0x0003);
 1003000:	010000c4 	movi	r4,3
 1003004:	100309c0 	call	100309c <lcdWriteData>
	lcdWriteData(0x0001);
 1003008:	01000044 	movi	r4,1
 100300c:	100309c0 	call	100309c <lcdWriteData>

	lcdWriteCommand(0x00BA);
 1003010:	01002e84 	movi	r4,186
 1003014:	10030640 	call	1003064 <lcdWriteCommand>
	lcdWriteData(0x0001);
 1003018:	01000044 	movi	r4,1
 100301c:	100309c0 	call	100309c <lcdWriteData>

	lcdWriteCommand(0x0036);
 1003020:	01000d84 	movi	r4,54
 1003024:	10030640 	call	1003064 <lcdWriteCommand>
	lcdWriteData(0x0020);
 1003028:	01000804 	movi	r4,32
 100302c:	100309c0 	call	100309c <lcdWriteData>

	lcdRectClear(0, 0, HDP, VDP, BACKGROUND);
 1003030:	00bfffd4 	movui	r2,65535
 1003034:	d8800015 	stw	r2,0(sp)
 1003038:	01c077c4 	movi	r7,479
 100303c:	0180c7c4 	movi	r6,799
 1003040:	000b883a 	mov	r5,zero
 1003044:	0009883a 	mov	r4,zero
 1003048:	100328c0 	call	100328c <lcdRectClear>
	return 0;
 100304c:	0005883a 	mov	r2,zero
}
 1003050:	e037883a 	mov	sp,fp
 1003054:	dfc00117 	ldw	ra,4(sp)
 1003058:	df000017 	ldw	fp,0(sp)
 100305c:	dec00204 	addi	sp,sp,8
 1003060:	f800283a 	ret

01003064 <lcdWriteCommand>:

void lcdWriteCommand(u16 command) {
 1003064:	defffe04 	addi	sp,sp,-8
 1003068:	df000115 	stw	fp,4(sp)
 100306c:	df000104 	addi	fp,sp,4
 1003070:	2005883a 	mov	r2,r4
 1003074:	e0bfff0d 	sth	r2,-4(fp)
	IOWR(LCD_BASE, 0, command);
 1003078:	e0ffff0b 	ldhu	r3,-4(fp)
 100307c:	00801034 	movhi	r2,64
 1003080:	10844e04 	addi	r2,r2,4408
 1003084:	10c00035 	stwio	r3,0(r2)
}
 1003088:	0001883a 	nop
 100308c:	e037883a 	mov	sp,fp
 1003090:	df000017 	ldw	fp,0(sp)
 1003094:	dec00104 	addi	sp,sp,4
 1003098:	f800283a 	ret

0100309c <lcdWriteData>:

void lcdWriteData(u16 data) {
 100309c:	defffe04 	addi	sp,sp,-8
 10030a0:	df000115 	stw	fp,4(sp)
 10030a4:	df000104 	addi	fp,sp,4
 10030a8:	2005883a 	mov	r2,r4
 10030ac:	e0bfff0d 	sth	r2,-4(fp)
	IOWR(LCD_BASE, 1, data);
 10030b0:	e0ffff0b 	ldhu	r3,-4(fp)
 10030b4:	00801034 	movhi	r2,64
 10030b8:	10844f04 	addi	r2,r2,4412
 10030bc:	10c00035 	stwio	r3,0(r2)
}
 10030c0:	0001883a 	nop
 10030c4:	e037883a 	mov	sp,fp
 10030c8:	df000017 	ldw	fp,0(sp)
 10030cc:	dec00104 	addi	sp,sp,4
 10030d0:	f800283a 	ret

010030d4 <lcdReadData>:

u16 lcdReadData(void) {
 10030d4:	deffff04 	addi	sp,sp,-4
 10030d8:	df000015 	stw	fp,0(sp)
 10030dc:	d839883a 	mov	fp,sp
	return (u16) IORD(LCD_BASE, 1);
 10030e0:	00801034 	movhi	r2,64
 10030e4:	10844f04 	addi	r2,r2,4412
 10030e8:	10800037 	ldwio	r2,0(r2)
}
 10030ec:	e037883a 	mov	sp,fp
 10030f0:	df000017 	ldw	fp,0(sp)
 10030f4:	dec00104 	addi	sp,sp,4
 10030f8:	f800283a 	ret

010030fc <lcdSetCursor>:

void lcdSetCursor(u16 x, u16 y) {
 10030fc:	defffc04 	addi	sp,sp,-16
 1003100:	dfc00315 	stw	ra,12(sp)
 1003104:	df000215 	stw	fp,8(sp)
 1003108:	df000204 	addi	fp,sp,8
 100310c:	2007883a 	mov	r3,r4
 1003110:	2805883a 	mov	r2,r5
 1003114:	e0fffe0d 	sth	r3,-8(fp)
 1003118:	e0bfff0d 	sth	r2,-4(fp)
	lcdWriteCommand(0x002A);
 100311c:	01000a84 	movi	r4,42
 1003120:	10030640 	call	1003064 <lcdWriteCommand>
	lcdWriteData(x >> 8);
 1003124:	e0bffe0b 	ldhu	r2,-8(fp)
 1003128:	1004d23a 	srli	r2,r2,8
 100312c:	10bfffcc 	andi	r2,r2,65535
 1003130:	1009883a 	mov	r4,r2
 1003134:	100309c0 	call	100309c <lcdWriteData>
	lcdWriteData(x & 0x00ff);
 1003138:	e0bffe0b 	ldhu	r2,-8(fp)
 100313c:	10803fcc 	andi	r2,r2,255
 1003140:	1009883a 	mov	r4,r2
 1003144:	100309c0 	call	100309c <lcdWriteData>
	lcdWriteData(x >> 8);
 1003148:	e0bffe0b 	ldhu	r2,-8(fp)
 100314c:	1004d23a 	srli	r2,r2,8
 1003150:	10bfffcc 	andi	r2,r2,65535
 1003154:	1009883a 	mov	r4,r2
 1003158:	100309c0 	call	100309c <lcdWriteData>
	lcdWriteData(x & 0x00ff);
 100315c:	e0bffe0b 	ldhu	r2,-8(fp)
 1003160:	10803fcc 	andi	r2,r2,255
 1003164:	1009883a 	mov	r4,r2
 1003168:	100309c0 	call	100309c <lcdWriteData>

	lcdWriteCommand(0x002B);
 100316c:	01000ac4 	movi	r4,43
 1003170:	10030640 	call	1003064 <lcdWriteCommand>
	lcdWriteData(y >> 8);
 1003174:	e0bfff0b 	ldhu	r2,-4(fp)
 1003178:	1004d23a 	srli	r2,r2,8
 100317c:	10bfffcc 	andi	r2,r2,65535
 1003180:	1009883a 	mov	r4,r2
 1003184:	100309c0 	call	100309c <lcdWriteData>
	lcdWriteData(y & 0x00ff);
 1003188:	e0bfff0b 	ldhu	r2,-4(fp)
 100318c:	10803fcc 	andi	r2,r2,255
 1003190:	1009883a 	mov	r4,r2
 1003194:	100309c0 	call	100309c <lcdWriteData>
	lcdWriteData(y >> 8);
 1003198:	e0bfff0b 	ldhu	r2,-4(fp)
 100319c:	1004d23a 	srli	r2,r2,8
 10031a0:	10bfffcc 	andi	r2,r2,65535
 10031a4:	1009883a 	mov	r4,r2
 10031a8:	100309c0 	call	100309c <lcdWriteData>
	lcdWriteData(y & 0x00ff);
 10031ac:	e0bfff0b 	ldhu	r2,-4(fp)
 10031b0:	10803fcc 	andi	r2,r2,255
 10031b4:	1009883a 	mov	r4,r2
 10031b8:	100309c0 	call	100309c <lcdWriteData>
}
 10031bc:	0001883a 	nop
 10031c0:	e037883a 	mov	sp,fp
 10031c4:	dfc00117 	ldw	ra,4(sp)
 10031c8:	df000017 	ldw	fp,0(sp)
 10031cc:	dec00204 	addi	sp,sp,8
 10031d0:	f800283a 	ret

010031d4 <lcdDrawPoint>:

void lcdDrawPoint(u16 x, u16 y, u16 color) {
 10031d4:	defffb04 	addi	sp,sp,-20
 10031d8:	dfc00415 	stw	ra,16(sp)
 10031dc:	df000315 	stw	fp,12(sp)
 10031e0:	df000304 	addi	fp,sp,12
 10031e4:	2807883a 	mov	r3,r5
 10031e8:	3005883a 	mov	r2,r6
 10031ec:	e13ffd0d 	sth	r4,-12(fp)
 10031f0:	e0fffe0d 	sth	r3,-8(fp)
 10031f4:	e0bfff0d 	sth	r2,-4(fp)
	lcdSetCursor(x, y);
 10031f8:	e0bffd0b 	ldhu	r2,-12(fp)
 10031fc:	e0fffe0b 	ldhu	r3,-8(fp)
 1003200:	180b883a 	mov	r5,r3
 1003204:	1009883a 	mov	r4,r2
 1003208:	10030fc0 	call	10030fc <lcdSetCursor>
	lcdWriteCommand(0x002C);
 100320c:	01000b04 	movi	r4,44
 1003210:	10030640 	call	1003064 <lcdWriteCommand>
	lcdWriteData(color);
 1003214:	e0bfff0b 	ldhu	r2,-4(fp)
 1003218:	1009883a 	mov	r4,r2
 100321c:	100309c0 	call	100309c <lcdWriteData>
}
 1003220:	0001883a 	nop
 1003224:	e037883a 	mov	sp,fp
 1003228:	dfc00117 	ldw	ra,4(sp)
 100322c:	df000017 	ldw	fp,0(sp)
 1003230:	dec00204 	addi	sp,sp,8
 1003234:	f800283a 	ret

01003238 <lcdGetPoint>:

u16 lcdGetPoint(u16 x, u16 y) {
 1003238:	defffc04 	addi	sp,sp,-16
 100323c:	dfc00315 	stw	ra,12(sp)
 1003240:	df000215 	stw	fp,8(sp)
 1003244:	df000204 	addi	fp,sp,8
 1003248:	2007883a 	mov	r3,r4
 100324c:	2805883a 	mov	r2,r5
 1003250:	e0fffe0d 	sth	r3,-8(fp)
 1003254:	e0bfff0d 	sth	r2,-4(fp)
	lcdSetCursor(x, y);
 1003258:	e0bffe0b 	ldhu	r2,-8(fp)
 100325c:	e0ffff0b 	ldhu	r3,-4(fp)
 1003260:	180b883a 	mov	r5,r3
 1003264:	1009883a 	mov	r4,r2
 1003268:	10030fc0 	call	10030fc <lcdSetCursor>
	lcdWriteCommand(0x002E);
 100326c:	01000b84 	movi	r4,46
 1003270:	10030640 	call	1003064 <lcdWriteCommand>
	return lcdReadData();
 1003274:	10030d40 	call	10030d4 <lcdReadData>
}
 1003278:	e037883a 	mov	sp,fp
 100327c:	dfc00117 	ldw	ra,4(sp)
 1003280:	df000017 	ldw	fp,0(sp)
 1003284:	dec00204 	addi	sp,sp,8
 1003288:	f800283a 	ret

0100328c <lcdRectClear>:
void lcdRectClear(u16 xs, u16 ys, u16 xe, u16 ye, u16 color) {
 100328c:	defff804 	addi	sp,sp,-32
 1003290:	dfc00715 	stw	ra,28(sp)
 1003294:	df000615 	stw	fp,24(sp)
 1003298:	df000604 	addi	fp,sp,24
 100329c:	2011883a 	mov	r8,r4
 10032a0:	3009883a 	mov	r4,r6
 10032a4:	3807883a 	mov	r3,r7
 10032a8:	e0800217 	ldw	r2,8(fp)
 10032ac:	e23ffb0d 	sth	r8,-20(fp)
 10032b0:	e17ffc0d 	sth	r5,-16(fp)
 10032b4:	e13ffd0d 	sth	r4,-12(fp)
 10032b8:	e0fffe0d 	sth	r3,-8(fp)
 10032bc:	e0bfff0d 	sth	r2,-4(fp)
	int cnt = (xe - xs + 1) * (ye - ys + 1);
 10032c0:	e0fffd0b 	ldhu	r3,-12(fp)
 10032c4:	e0bffb0b 	ldhu	r2,-20(fp)
 10032c8:	1885c83a 	sub	r2,r3,r2
 10032cc:	10c00044 	addi	r3,r2,1
 10032d0:	e13ffe0b 	ldhu	r4,-8(fp)
 10032d4:	e0bffc0b 	ldhu	r2,-16(fp)
 10032d8:	2085c83a 	sub	r2,r4,r2
 10032dc:	10800044 	addi	r2,r2,1
 10032e0:	1885383a 	mul	r2,r3,r2
 10032e4:	e0bffa15 	stw	r2,-24(fp)

	lcdWriteCommand(0x002A);
 10032e8:	01000a84 	movi	r4,42
 10032ec:	10030640 	call	1003064 <lcdWriteCommand>
	lcdWriteData(xs >> 8);
 10032f0:	e0bffb0b 	ldhu	r2,-20(fp)
 10032f4:	1004d23a 	srli	r2,r2,8
 10032f8:	10bfffcc 	andi	r2,r2,65535
 10032fc:	1009883a 	mov	r4,r2
 1003300:	100309c0 	call	100309c <lcdWriteData>
	lcdWriteData(xs & 0x00ff);
 1003304:	e0bffb0b 	ldhu	r2,-20(fp)
 1003308:	10803fcc 	andi	r2,r2,255
 100330c:	1009883a 	mov	r4,r2
 1003310:	100309c0 	call	100309c <lcdWriteData>
	lcdWriteData(xe >> 8);
 1003314:	e0bffd0b 	ldhu	r2,-12(fp)
 1003318:	1004d23a 	srli	r2,r2,8
 100331c:	10bfffcc 	andi	r2,r2,65535
 1003320:	1009883a 	mov	r4,r2
 1003324:	100309c0 	call	100309c <lcdWriteData>
	lcdWriteData(xe & 0x00ff);
 1003328:	e0bffd0b 	ldhu	r2,-12(fp)
 100332c:	10803fcc 	andi	r2,r2,255
 1003330:	1009883a 	mov	r4,r2
 1003334:	100309c0 	call	100309c <lcdWriteData>

	lcdWriteCommand(0x002B);
 1003338:	01000ac4 	movi	r4,43
 100333c:	10030640 	call	1003064 <lcdWriteCommand>
	lcdWriteData(ys >> 8);
 1003340:	e0bffc0b 	ldhu	r2,-16(fp)
 1003344:	1004d23a 	srli	r2,r2,8
 1003348:	10bfffcc 	andi	r2,r2,65535
 100334c:	1009883a 	mov	r4,r2
 1003350:	100309c0 	call	100309c <lcdWriteData>
	lcdWriteData(ys & 0x00ff);
 1003354:	e0bffc0b 	ldhu	r2,-16(fp)
 1003358:	10803fcc 	andi	r2,r2,255
 100335c:	1009883a 	mov	r4,r2
 1003360:	100309c0 	call	100309c <lcdWriteData>
	lcdWriteData(ye >> 8);
 1003364:	e0bffe0b 	ldhu	r2,-8(fp)
 1003368:	1004d23a 	srli	r2,r2,8
 100336c:	10bfffcc 	andi	r2,r2,65535
 1003370:	1009883a 	mov	r4,r2
 1003374:	100309c0 	call	100309c <lcdWriteData>
	lcdWriteData(ye & 0x00ff);
 1003378:	e0bffe0b 	ldhu	r2,-8(fp)
 100337c:	10803fcc 	andi	r2,r2,255
 1003380:	1009883a 	mov	r4,r2
 1003384:	100309c0 	call	100309c <lcdWriteData>

	lcdWriteCommand(0x002C);
 1003388:	01000b04 	movi	r4,44
 100338c:	10030640 	call	1003064 <lcdWriteCommand>
	while (cnt) {
 1003390:	00000606 	br	10033ac <lcdRectClear+0x120>
		lcdWriteData(color);
 1003394:	e0bfff0b 	ldhu	r2,-4(fp)
 1003398:	1009883a 	mov	r4,r2
 100339c:	100309c0 	call	100309c <lcdWriteData>
		cnt--;
 10033a0:	e0bffa17 	ldw	r2,-24(fp)
 10033a4:	10bfffc4 	addi	r2,r2,-1
 10033a8:	e0bffa15 	stw	r2,-24(fp)
	lcdWriteData(ys & 0x00ff);
	lcdWriteData(ye >> 8);
	lcdWriteData(ye & 0x00ff);

	lcdWriteCommand(0x002C);
	while (cnt) {
 10033ac:	e0bffa17 	ldw	r2,-24(fp)
 10033b0:	103ff81e 	bne	r2,zero,1003394 <__alt_data_end+0xff803394>
		lcdWriteData(color);
		cnt--;
	}
}
 10033b4:	0001883a 	nop
 10033b8:	e037883a 	mov	sp,fp
 10033bc:	dfc00117 	ldw	ra,4(sp)
 10033c0:	df000017 	ldw	fp,0(sp)
 10033c4:	dec00204 	addi	sp,sp,8
 10033c8:	f800283a 	ret

010033cc <lcdSetLine>:

void lcdSetLine(u8 linemode, u8 cycle, u8 duty, u8 hlpen) {
 10033cc:	defffb04 	addi	sp,sp,-20
 10033d0:	df000415 	stw	fp,16(sp)
 10033d4:	df000404 	addi	fp,sp,16
 10033d8:	2011883a 	mov	r8,r4
 10033dc:	2809883a 	mov	r4,r5
 10033e0:	3007883a 	mov	r3,r6
 10033e4:	3805883a 	mov	r2,r7
 10033e8:	e23ffc05 	stb	r8,-16(fp)
 10033ec:	e13ffd05 	stb	r4,-12(fp)
 10033f0:	e0fffe05 	stb	r3,-8(fp)
 10033f4:	e0bfff05 	stb	r2,-4(fp)
	LINEMODE = linemode;
 10033f8:	e0bffc03 	ldbu	r2,-16(fp)
 10033fc:	d0a00305 	stb	r2,-32756(gp)
	CYCLE = cycle;
 1003400:	e0bffd03 	ldbu	r2,-12(fp)
 1003404:	d0a00345 	stb	r2,-32755(gp)
	DUTY = duty;
 1003408:	e0bffe03 	ldbu	r2,-8(fp)
 100340c:	d0a00385 	stb	r2,-32754(gp)
	HLPEN = hlpen - 1;
 1003410:	e0bfff03 	ldbu	r2,-4(fp)
 1003414:	10bfffc4 	addi	r2,r2,-1
 1003418:	d0a03305 	stb	r2,-32564(gp)
}
 100341c:	0001883a 	nop
 1003420:	e037883a 	mov	sp,fp
 1003424:	df000017 	ldw	fp,0(sp)
 1003428:	dec00104 	addi	sp,sp,4
 100342c:	f800283a 	ret

01003430 <lcdDrawVerLine>:

//
void lcdDrawVerLine(u16 x, u16 ys, u16 ye, u16 color) {
 1003430:	defff704 	addi	sp,sp,-36
 1003434:	dfc00815 	stw	ra,32(sp)
 1003438:	df000715 	stw	fp,28(sp)
 100343c:	df000704 	addi	fp,sp,28
 1003440:	2011883a 	mov	r8,r4
 1003444:	2809883a 	mov	r4,r5
 1003448:	3007883a 	mov	r3,r6
 100344c:	3805883a 	mov	r2,r7
 1003450:	e23ffc0d 	sth	r8,-16(fp)
 1003454:	e13ffd0d 	sth	r4,-12(fp)
 1003458:	e0fffe0d 	sth	r3,-8(fp)
 100345c:	e0bfff0d 	sth	r2,-4(fp)
	u16 cnt = 0;
 1003460:	e03ffb0d 	sth	zero,-20(fp)
	int i = 0;
 1003464:	e03ffa15 	stw	zero,-24(fp)
	if (LINEMODE == 1) {
 1003468:	d0a00303 	ldbu	r2,-32756(gp)
 100346c:	10803fcc 	andi	r2,r2,255
 1003470:	10800058 	cmpnei	r2,r2,1
 1003474:	1000471e 	bne	r2,zero,1003594 <lcdDrawVerLine+0x164>
		lcdWriteCommand(0x002A);
 1003478:	01000a84 	movi	r4,42
 100347c:	10030640 	call	1003064 <lcdWriteCommand>
		lcdWriteData(x >> 8);
 1003480:	e0bffc0b 	ldhu	r2,-16(fp)
 1003484:	1004d23a 	srli	r2,r2,8
 1003488:	10bfffcc 	andi	r2,r2,65535
 100348c:	1009883a 	mov	r4,r2
 1003490:	100309c0 	call	100309c <lcdWriteData>
		lcdWriteData(x & 0x00ff);
 1003494:	e0bffc0b 	ldhu	r2,-16(fp)
 1003498:	10803fcc 	andi	r2,r2,255
 100349c:	1009883a 	mov	r4,r2
 10034a0:	100309c0 	call	100309c <lcdWriteData>
		lcdWriteData((x + HLPEN) >> 8);
 10034a4:	e0fffc0b 	ldhu	r3,-16(fp)
 10034a8:	d0a03303 	ldbu	r2,-32564(gp)
 10034ac:	10803fcc 	andi	r2,r2,255
 10034b0:	1885883a 	add	r2,r3,r2
 10034b4:	1005d23a 	srai	r2,r2,8
 10034b8:	10bfffcc 	andi	r2,r2,65535
 10034bc:	1009883a 	mov	r4,r2
 10034c0:	100309c0 	call	100309c <lcdWriteData>
		lcdWriteData((x + HLPEN) & 0x00ff);
 10034c4:	d0a03303 	ldbu	r2,-32564(gp)
 10034c8:	10c03fcc 	andi	r3,r2,255
 10034cc:	e0bffc0b 	ldhu	r2,-16(fp)
 10034d0:	1885883a 	add	r2,r3,r2
 10034d4:	10bfffcc 	andi	r2,r2,65535
 10034d8:	10803fcc 	andi	r2,r2,255
 10034dc:	1009883a 	mov	r4,r2
 10034e0:	100309c0 	call	100309c <lcdWriteData>

		lcdWriteCommand(0x002B);
 10034e4:	01000ac4 	movi	r4,43
 10034e8:	10030640 	call	1003064 <lcdWriteCommand>
		lcdWriteData(ys >> 8);
 10034ec:	e0bffd0b 	ldhu	r2,-12(fp)
 10034f0:	1004d23a 	srli	r2,r2,8
 10034f4:	10bfffcc 	andi	r2,r2,65535
 10034f8:	1009883a 	mov	r4,r2
 10034fc:	100309c0 	call	100309c <lcdWriteData>
		lcdWriteData(ys & 0x00ff);
 1003500:	e0bffd0b 	ldhu	r2,-12(fp)
 1003504:	10803fcc 	andi	r2,r2,255
 1003508:	1009883a 	mov	r4,r2
 100350c:	100309c0 	call	100309c <lcdWriteData>
		lcdWriteData(ye >> 8);
 1003510:	e0bffe0b 	ldhu	r2,-8(fp)
 1003514:	1004d23a 	srli	r2,r2,8
 1003518:	10bfffcc 	andi	r2,r2,65535
 100351c:	1009883a 	mov	r4,r2
 1003520:	100309c0 	call	100309c <lcdWriteData>
		lcdWriteData(ye & 0x00ff);
 1003524:	e0bffe0b 	ldhu	r2,-8(fp)
 1003528:	10803fcc 	andi	r2,r2,255
 100352c:	1009883a 	mov	r4,r2
 1003530:	100309c0 	call	100309c <lcdWriteData>

		cnt = (ye - ys + 1) * (HLPEN + 1);
 1003534:	e0fffe0b 	ldhu	r3,-8(fp)
 1003538:	e0bffd0b 	ldhu	r2,-12(fp)
 100353c:	1885c83a 	sub	r2,r3,r2
 1003540:	10800044 	addi	r2,r2,1
 1003544:	1007883a 	mov	r3,r2
 1003548:	d0a03303 	ldbu	r2,-32564(gp)
 100354c:	10803fcc 	andi	r2,r2,255
 1003550:	10800044 	addi	r2,r2,1
 1003554:	1885383a 	mul	r2,r3,r2
 1003558:	e0bffb0d 	sth	r2,-20(fp)
		lcdWriteCommand(0x002C);
 100355c:	01000b04 	movi	r4,44
 1003560:	10030640 	call	1003064 <lcdWriteCommand>
		for (i = 0; i < cnt; i++)
 1003564:	e03ffa15 	stw	zero,-24(fp)
 1003568:	00000606 	br	1003584 <lcdDrawVerLine+0x154>
			lcdWriteData(color);
 100356c:	e0bfff0b 	ldhu	r2,-4(fp)
 1003570:	1009883a 	mov	r4,r2
 1003574:	100309c0 	call	100309c <lcdWriteData>
		lcdWriteData(ye >> 8);
		lcdWriteData(ye & 0x00ff);

		cnt = (ye - ys + 1) * (HLPEN + 1);
		lcdWriteCommand(0x002C);
		for (i = 0; i < cnt; i++)
 1003578:	e0bffa17 	ldw	r2,-24(fp)
 100357c:	10800044 	addi	r2,r2,1
 1003580:	e0bffa15 	stw	r2,-24(fp)
 1003584:	e0bffb0b 	ldhu	r2,-20(fp)
 1003588:	e0fffa17 	ldw	r3,-24(fp)
 100358c:	18bff716 	blt	r3,r2,100356c <__alt_data_end+0xff80356c>
		cnt = (ye - ys) / CYCLE;
		for (i = 0; i < cnt; i++)
			lcdRectClear(x, ys + i * CYCLE, x + HLPEN,
					ys + i * CYCLE + DUTY - 1, color);
	}
}
 1003590:	00002f06 	br	1003650 <lcdDrawVerLine+0x220>
		cnt = (ye - ys + 1) * (HLPEN + 1);
		lcdWriteCommand(0x002C);
		for (i = 0; i < cnt; i++)
			lcdWriteData(color);
	} else {
		cnt = (ye - ys) / CYCLE;
 1003594:	e0fffe0b 	ldhu	r3,-8(fp)
 1003598:	e0bffd0b 	ldhu	r2,-12(fp)
 100359c:	1887c83a 	sub	r3,r3,r2
 10035a0:	d0a00343 	ldbu	r2,-32755(gp)
 10035a4:	10803fcc 	andi	r2,r2,255
 10035a8:	1885283a 	div	r2,r3,r2
 10035ac:	e0bffb0d 	sth	r2,-20(fp)
		for (i = 0; i < cnt; i++)
 10035b0:	e03ffa15 	stw	zero,-24(fp)
 10035b4:	00002306 	br	1003644 <lcdDrawVerLine+0x214>
			lcdRectClear(x, ys + i * CYCLE, x + HLPEN,
 10035b8:	e13ffc0b 	ldhu	r4,-16(fp)
 10035bc:	d0a00343 	ldbu	r2,-32755(gp)
 10035c0:	10803fcc 	andi	r2,r2,255
 10035c4:	e0fffa17 	ldw	r3,-24(fp)
 10035c8:	10c5383a 	mul	r2,r2,r3
 10035cc:	1007883a 	mov	r3,r2
 10035d0:	e0bffd0b 	ldhu	r2,-12(fp)
 10035d4:	1885883a 	add	r2,r3,r2
 10035d8:	117fffcc 	andi	r5,r2,65535
 10035dc:	d0a03303 	ldbu	r2,-32564(gp)
 10035e0:	10c03fcc 	andi	r3,r2,255
 10035e4:	e0bffc0b 	ldhu	r2,-16(fp)
 10035e8:	1885883a 	add	r2,r3,r2
 10035ec:	10ffffcc 	andi	r3,r2,65535
 10035f0:	d0a00343 	ldbu	r2,-32755(gp)
 10035f4:	10803fcc 	andi	r2,r2,255
 10035f8:	e1bffa17 	ldw	r6,-24(fp)
 10035fc:	1185383a 	mul	r2,r2,r6
 1003600:	100d883a 	mov	r6,r2
 1003604:	e0bffd0b 	ldhu	r2,-12(fp)
 1003608:	3085883a 	add	r2,r6,r2
 100360c:	100d883a 	mov	r6,r2
 1003610:	d0a00383 	ldbu	r2,-32754(gp)
 1003614:	10803fcc 	andi	r2,r2,255
 1003618:	3085883a 	add	r2,r6,r2
 100361c:	10bfffc4 	addi	r2,r2,-1
 1003620:	11bfffcc 	andi	r6,r2,65535
 1003624:	e0bfff0b 	ldhu	r2,-4(fp)
 1003628:	d8800015 	stw	r2,0(sp)
 100362c:	300f883a 	mov	r7,r6
 1003630:	180d883a 	mov	r6,r3
 1003634:	100328c0 	call	100328c <lcdRectClear>
		lcdWriteCommand(0x002C);
		for (i = 0; i < cnt; i++)
			lcdWriteData(color);
	} else {
		cnt = (ye - ys) / CYCLE;
		for (i = 0; i < cnt; i++)
 1003638:	e0bffa17 	ldw	r2,-24(fp)
 100363c:	10800044 	addi	r2,r2,1
 1003640:	e0bffa15 	stw	r2,-24(fp)
 1003644:	e0bffb0b 	ldhu	r2,-20(fp)
 1003648:	e0fffa17 	ldw	r3,-24(fp)
 100364c:	18bfda16 	blt	r3,r2,10035b8 <__alt_data_end+0xff8035b8>
			lcdRectClear(x, ys + i * CYCLE, x + HLPEN,
					ys + i * CYCLE + DUTY - 1, color);
	}
}
 1003650:	0001883a 	nop
 1003654:	e037883a 	mov	sp,fp
 1003658:	dfc00117 	ldw	ra,4(sp)
 100365c:	df000017 	ldw	fp,0(sp)
 1003660:	dec00204 	addi	sp,sp,8
 1003664:	f800283a 	ret

01003668 <lcdDrawHorLine>:

//
void lcdDrawHorLine(u16 y, u16 xs, u16 xe, u16 color) {
 1003668:	defff704 	addi	sp,sp,-36
 100366c:	dfc00815 	stw	ra,32(sp)
 1003670:	df000715 	stw	fp,28(sp)
 1003674:	df000704 	addi	fp,sp,28
 1003678:	2011883a 	mov	r8,r4
 100367c:	2809883a 	mov	r4,r5
 1003680:	3007883a 	mov	r3,r6
 1003684:	3805883a 	mov	r2,r7
 1003688:	e23ffc0d 	sth	r8,-16(fp)
 100368c:	e13ffd0d 	sth	r4,-12(fp)
 1003690:	e0fffe0d 	sth	r3,-8(fp)
 1003694:	e0bfff0d 	sth	r2,-4(fp)
	u16 cnt = 0;
 1003698:	e03ffb0d 	sth	zero,-20(fp)
	int i = 0;
 100369c:	e03ffa15 	stw	zero,-24(fp)
	if (LINEMODE == 1) {
 10036a0:	d0a00303 	ldbu	r2,-32756(gp)
 10036a4:	10803fcc 	andi	r2,r2,255
 10036a8:	10800058 	cmpnei	r2,r2,1
 10036ac:	1000471e 	bne	r2,zero,10037cc <lcdDrawHorLine+0x164>
		lcdWriteCommand(0x002A);
 10036b0:	01000a84 	movi	r4,42
 10036b4:	10030640 	call	1003064 <lcdWriteCommand>
		lcdWriteData(xs >> 8);
 10036b8:	e0bffd0b 	ldhu	r2,-12(fp)
 10036bc:	1004d23a 	srli	r2,r2,8
 10036c0:	10bfffcc 	andi	r2,r2,65535
 10036c4:	1009883a 	mov	r4,r2
 10036c8:	100309c0 	call	100309c <lcdWriteData>
		lcdWriteData(xs & 0x00ff);
 10036cc:	e0bffd0b 	ldhu	r2,-12(fp)
 10036d0:	10803fcc 	andi	r2,r2,255
 10036d4:	1009883a 	mov	r4,r2
 10036d8:	100309c0 	call	100309c <lcdWriteData>
		lcdWriteData(xe >> 8);
 10036dc:	e0bffe0b 	ldhu	r2,-8(fp)
 10036e0:	1004d23a 	srli	r2,r2,8
 10036e4:	10bfffcc 	andi	r2,r2,65535
 10036e8:	1009883a 	mov	r4,r2
 10036ec:	100309c0 	call	100309c <lcdWriteData>
		lcdWriteData(xe & 0x00ff);
 10036f0:	e0bffe0b 	ldhu	r2,-8(fp)
 10036f4:	10803fcc 	andi	r2,r2,255
 10036f8:	1009883a 	mov	r4,r2
 10036fc:	100309c0 	call	100309c <lcdWriteData>

		lcdWriteCommand(0x002B);
 1003700:	01000ac4 	movi	r4,43
 1003704:	10030640 	call	1003064 <lcdWriteCommand>
		lcdWriteData(y >> 8);
 1003708:	e0bffc0b 	ldhu	r2,-16(fp)
 100370c:	1004d23a 	srli	r2,r2,8
 1003710:	10bfffcc 	andi	r2,r2,65535
 1003714:	1009883a 	mov	r4,r2
 1003718:	100309c0 	call	100309c <lcdWriteData>
		lcdWriteData(y & 0x00ff);
 100371c:	e0bffc0b 	ldhu	r2,-16(fp)
 1003720:	10803fcc 	andi	r2,r2,255
 1003724:	1009883a 	mov	r4,r2
 1003728:	100309c0 	call	100309c <lcdWriteData>
		lcdWriteData((y + HLPEN) >> 8);
 100372c:	e0fffc0b 	ldhu	r3,-16(fp)
 1003730:	d0a03303 	ldbu	r2,-32564(gp)
 1003734:	10803fcc 	andi	r2,r2,255
 1003738:	1885883a 	add	r2,r3,r2
 100373c:	1005d23a 	srai	r2,r2,8
 1003740:	10bfffcc 	andi	r2,r2,65535
 1003744:	1009883a 	mov	r4,r2
 1003748:	100309c0 	call	100309c <lcdWriteData>
		lcdWriteData((y + HLPEN) & 0x00ff);
 100374c:	d0a03303 	ldbu	r2,-32564(gp)
 1003750:	10c03fcc 	andi	r3,r2,255
 1003754:	e0bffc0b 	ldhu	r2,-16(fp)
 1003758:	1885883a 	add	r2,r3,r2
 100375c:	10bfffcc 	andi	r2,r2,65535
 1003760:	10803fcc 	andi	r2,r2,255
 1003764:	1009883a 	mov	r4,r2
 1003768:	100309c0 	call	100309c <lcdWriteData>

		cnt = (xe - xs + 1) * (HLPEN + 1);
 100376c:	e0fffe0b 	ldhu	r3,-8(fp)
 1003770:	e0bffd0b 	ldhu	r2,-12(fp)
 1003774:	1885c83a 	sub	r2,r3,r2
 1003778:	10800044 	addi	r2,r2,1
 100377c:	1007883a 	mov	r3,r2
 1003780:	d0a03303 	ldbu	r2,-32564(gp)
 1003784:	10803fcc 	andi	r2,r2,255
 1003788:	10800044 	addi	r2,r2,1
 100378c:	1885383a 	mul	r2,r3,r2
 1003790:	e0bffb0d 	sth	r2,-20(fp)
		lcdWriteCommand(0x002C);
 1003794:	01000b04 	movi	r4,44
 1003798:	10030640 	call	1003064 <lcdWriteCommand>
		for (i = 0; i < cnt; i++)
 100379c:	e03ffa15 	stw	zero,-24(fp)
 10037a0:	00000606 	br	10037bc <lcdDrawHorLine+0x154>
			lcdWriteData(color);
 10037a4:	e0bfff0b 	ldhu	r2,-4(fp)
 10037a8:	1009883a 	mov	r4,r2
 10037ac:	100309c0 	call	100309c <lcdWriteData>
		lcdWriteData((y + HLPEN) >> 8);
		lcdWriteData((y + HLPEN) & 0x00ff);

		cnt = (xe - xs + 1) * (HLPEN + 1);
		lcdWriteCommand(0x002C);
		for (i = 0; i < cnt; i++)
 10037b0:	e0bffa17 	ldw	r2,-24(fp)
 10037b4:	10800044 	addi	r2,r2,1
 10037b8:	e0bffa15 	stw	r2,-24(fp)
 10037bc:	e0bffb0b 	ldhu	r2,-20(fp)
 10037c0:	e0fffa17 	ldw	r3,-24(fp)
 10037c4:	18bff716 	blt	r3,r2,10037a4 <__alt_data_end+0xff8037a4>
		cnt = (xe - xs) / CYCLE;
		for (i = 0; i < cnt; i++)
			lcdRectClear(xs + i * CYCLE, y, xs + i * CYCLE + DUTY - 1,
					y + HLPEN, color);
	}
}
 10037c8:	00002e06 	br	1003884 <lcdDrawHorLine+0x21c>
		cnt = (xe - xs + 1) * (HLPEN + 1);
		lcdWriteCommand(0x002C);
		for (i = 0; i < cnt; i++)
			lcdWriteData(color);
	} else {
		cnt = (xe - xs) / CYCLE;
 10037cc:	e0fffe0b 	ldhu	r3,-8(fp)
 10037d0:	e0bffd0b 	ldhu	r2,-12(fp)
 10037d4:	1887c83a 	sub	r3,r3,r2
 10037d8:	d0a00343 	ldbu	r2,-32755(gp)
 10037dc:	10803fcc 	andi	r2,r2,255
 10037e0:	1885283a 	div	r2,r3,r2
 10037e4:	e0bffb0d 	sth	r2,-20(fp)
		for (i = 0; i < cnt; i++)
 10037e8:	e03ffa15 	stw	zero,-24(fp)
 10037ec:	00002206 	br	1003878 <lcdDrawHorLine+0x210>
			lcdRectClear(xs + i * CYCLE, y, xs + i * CYCLE + DUTY - 1,
 10037f0:	d0a00343 	ldbu	r2,-32755(gp)
 10037f4:	10803fcc 	andi	r2,r2,255
 10037f8:	e0fffa17 	ldw	r3,-24(fp)
 10037fc:	10c5383a 	mul	r2,r2,r3
 1003800:	1007883a 	mov	r3,r2
 1003804:	e0bffd0b 	ldhu	r2,-12(fp)
 1003808:	1885883a 	add	r2,r3,r2
 100380c:	113fffcc 	andi	r4,r2,65535
 1003810:	e17ffc0b 	ldhu	r5,-16(fp)
 1003814:	d0a00343 	ldbu	r2,-32755(gp)
 1003818:	10803fcc 	andi	r2,r2,255
 100381c:	e0fffa17 	ldw	r3,-24(fp)
 1003820:	10c5383a 	mul	r2,r2,r3
 1003824:	1007883a 	mov	r3,r2
 1003828:	e0bffd0b 	ldhu	r2,-12(fp)
 100382c:	1885883a 	add	r2,r3,r2
 1003830:	1007883a 	mov	r3,r2
 1003834:	d0a00383 	ldbu	r2,-32754(gp)
 1003838:	10803fcc 	andi	r2,r2,255
 100383c:	1885883a 	add	r2,r3,r2
 1003840:	10bfffc4 	addi	r2,r2,-1
 1003844:	11bfffcc 	andi	r6,r2,65535
 1003848:	d0a03303 	ldbu	r2,-32564(gp)
 100384c:	10c03fcc 	andi	r3,r2,255
 1003850:	e0bffc0b 	ldhu	r2,-16(fp)
 1003854:	1885883a 	add	r2,r3,r2
 1003858:	10ffffcc 	andi	r3,r2,65535
 100385c:	e0bfff0b 	ldhu	r2,-4(fp)
 1003860:	d8800015 	stw	r2,0(sp)
 1003864:	180f883a 	mov	r7,r3
 1003868:	100328c0 	call	100328c <lcdRectClear>
		lcdWriteCommand(0x002C);
		for (i = 0; i < cnt; i++)
			lcdWriteData(color);
	} else {
		cnt = (xe - xs) / CYCLE;
		for (i = 0; i < cnt; i++)
 100386c:	e0bffa17 	ldw	r2,-24(fp)
 1003870:	10800044 	addi	r2,r2,1
 1003874:	e0bffa15 	stw	r2,-24(fp)
 1003878:	e0bffb0b 	ldhu	r2,-20(fp)
 100387c:	e0fffa17 	ldw	r3,-24(fp)
 1003880:	18bfdb16 	blt	r3,r2,10037f0 <__alt_data_end+0xff8037f0>
			lcdRectClear(xs + i * CYCLE, y, xs + i * CYCLE + DUTY - 1,
					y + HLPEN, color);
	}
}
 1003884:	0001883a 	nop
 1003888:	e037883a 	mov	sp,fp
 100388c:	dfc00117 	ldw	ra,4(sp)
 1003890:	df000017 	ldw	fp,0(sp)
 1003894:	dec00204 	addi	sp,sp,8
 1003898:	f800283a 	ret

0100389c <lcdDrawLine>:
void lcdDrawLine(u16 xs, u16 ys, u16 xe, u16 ye, u16 color) {
 100389c:	deffef04 	addi	sp,sp,-68
 10038a0:	dfc01015 	stw	ra,64(sp)
 10038a4:	df000f15 	stw	fp,60(sp)
 10038a8:	df000f04 	addi	fp,sp,60
 10038ac:	2011883a 	mov	r8,r4
 10038b0:	3009883a 	mov	r4,r6
 10038b4:	3807883a 	mov	r3,r7
 10038b8:	e0800217 	ldw	r2,8(fp)
 10038bc:	e23ffb0d 	sth	r8,-20(fp)
 10038c0:	e17ffc0d 	sth	r5,-16(fp)
 10038c4:	e13ffd0d 	sth	r4,-12(fp)
 10038c8:	e0fffe0d 	sth	r3,-8(fp)
 10038cc:	e0bfff0d 	sth	r2,-4(fp)
	u16 t;
	int xerr = 0, yerr = 0, delta_x, delta_y, distance, xcha, ycha;
 10038d0:	e03ff215 	stw	zero,-56(fp)
 10038d4:	e03ff315 	stw	zero,-52(fp)
	int incx, incy;
	/*  compute the distance in both directions */
	delta_x = xe - xs;
 10038d8:	e0fffd0b 	ldhu	r3,-12(fp)
 10038dc:	e0bffb0b 	ldhu	r2,-20(fp)
 10038e0:	1885c83a 	sub	r2,r3,r2
 10038e4:	e0bff915 	stw	r2,-28(fp)
	delta_y = ye - ys;
 10038e8:	e0fffe0b 	ldhu	r3,-8(fp)
 10038ec:	e0bffc0b 	ldhu	r2,-16(fp)
 10038f0:	1885c83a 	sub	r2,r3,r2
 10038f4:	e0bffa15 	stw	r2,-24(fp)

	/* compute  the direction of the increment ,
	 an increment of "0" means either a vertical or horizontal lines */

	if (delta_x > 0)
 10038f8:	e0bff917 	ldw	r2,-28(fp)
 10038fc:	0080030e 	bge	zero,r2,100390c <lcdDrawLine+0x70>
		incx = 1;
 1003900:	00800044 	movi	r2,1
 1003904:	e0bff715 	stw	r2,-36(fp)
 1003908:	00000606 	br	1003924 <lcdDrawLine+0x88>
	else if (delta_x == 0)
 100390c:	e0bff917 	ldw	r2,-28(fp)
 1003910:	1000021e 	bne	r2,zero,100391c <lcdDrawLine+0x80>
		incx = 0;
 1003914:	e03ff715 	stw	zero,-36(fp)
 1003918:	00000206 	br	1003924 <lcdDrawLine+0x88>
	else
		incx = -1;
 100391c:	00bfffc4 	movi	r2,-1
 1003920:	e0bff715 	stw	r2,-36(fp)

	if (delta_y > 0)
 1003924:	e0bffa17 	ldw	r2,-24(fp)
 1003928:	0080030e 	bge	zero,r2,1003938 <lcdDrawLine+0x9c>
		incy = 1;
 100392c:	00800044 	movi	r2,1
 1003930:	e0bff815 	stw	r2,-32(fp)
 1003934:	00000606 	br	1003950 <lcdDrawLine+0xb4>
	else if (delta_y == 0)
 1003938:	e0bffa17 	ldw	r2,-24(fp)
 100393c:	1000021e 	bne	r2,zero,1003948 <lcdDrawLine+0xac>
		incy = 0;
 1003940:	e03ff815 	stw	zero,-32(fp)
 1003944:	00000206 	br	1003950 <lcdDrawLine+0xb4>
	else
		incy = -1;
 1003948:	00bfffc4 	movi	r2,-1
 100394c:	e0bff815 	stw	r2,-32(fp)

	/*  determine which distance is greater */
	delta_x = delta_x < 0 ? -delta_x : delta_x;
 1003950:	e0bff917 	ldw	r2,-28(fp)
 1003954:	1000010e 	bge	r2,zero,100395c <lcdDrawLine+0xc0>
 1003958:	0085c83a 	sub	r2,zero,r2
 100395c:	e0bff915 	stw	r2,-28(fp)
	delta_y = delta_y < 0 ? -delta_y : delta_y;
 1003960:	e0bffa17 	ldw	r2,-24(fp)
 1003964:	1000010e 	bge	r2,zero,100396c <lcdDrawLine+0xd0>
 1003968:	0085c83a 	sub	r2,zero,r2
 100396c:	e0bffa15 	stw	r2,-24(fp)

	if (delta_x > delta_y) {
 1003970:	e0bff917 	ldw	r2,-28(fp)
 1003974:	e0fffa17 	ldw	r3,-24(fp)
 1003978:	18800a0e 	bge	r3,r2,10039a4 <lcdDrawLine+0x108>
		distance = delta_x;
 100397c:	e0bff917 	ldw	r2,-28(fp)
 1003980:	e0bff415 	stw	r2,-48(fp)
		xcha = distance;
 1003984:	e0bff417 	ldw	r2,-48(fp)
 1003988:	e0bff515 	stw	r2,-44(fp)
		ycha = 0;
 100398c:	e03ff615 	stw	zero,-40(fp)
		yerr = -(distance >> 1);
 1003990:	e0bff417 	ldw	r2,-48(fp)
 1003994:	1005d07a 	srai	r2,r2,1
 1003998:	0085c83a 	sub	r2,zero,r2
 100399c:	e0bff315 	stw	r2,-52(fp)
 10039a0:	00000906 	br	10039c8 <lcdDrawLine+0x12c>
	} else {
		distance = delta_y;
 10039a4:	e0bffa17 	ldw	r2,-24(fp)
 10039a8:	e0bff415 	stw	r2,-48(fp)
		ycha = distance;
 10039ac:	e0bff417 	ldw	r2,-48(fp)
 10039b0:	e0bff615 	stw	r2,-40(fp)
		xcha = 0;
 10039b4:	e03ff515 	stw	zero,-44(fp)
		xerr = -(distance >> 1);
 10039b8:	e0bff417 	ldw	r2,-48(fp)
 10039bc:	1005d07a 	srai	r2,r2,1
 10039c0:	0085c83a 	sub	r2,zero,r2
 10039c4:	e0bff215 	stw	r2,-56(fp)
	}

	/* draw the line */
	for (t = 0; t <= distance; t++) {
 10039c8:	e03ff10d 	sth	zero,-60(fp)
 10039cc:	00003f06 	br	1003acc <lcdDrawLine+0x230>
		if (LINEMODE == 1)
 10039d0:	d0a00303 	ldbu	r2,-32756(gp)
 10039d4:	10803fcc 	andi	r2,r2,255
 10039d8:	10800058 	cmpnei	r2,r2,1
 10039dc:	1000081e 	bne	r2,zero,1003a00 <lcdDrawLine+0x164>
			lcdDrawPoint(xs, ys, color);
 10039e0:	e0bffb0b 	ldhu	r2,-20(fp)
 10039e4:	e0fffc0b 	ldhu	r3,-16(fp)
 10039e8:	e13fff0b 	ldhu	r4,-4(fp)
 10039ec:	200d883a 	mov	r6,r4
 10039f0:	180b883a 	mov	r5,r3
 10039f4:	1009883a 	mov	r4,r2
 10039f8:	10031d40 	call	10031d4 <lcdDrawPoint>
 10039fc:	00001006 	br	1003a40 <lcdDrawLine+0x1a4>
		else if (t % CYCLE < DUTY)
 1003a00:	e0bff10b 	ldhu	r2,-60(fp)
 1003a04:	d0e00343 	ldbu	r3,-32755(gp)
 1003a08:	18c03fcc 	andi	r3,r3,255
 1003a0c:	10c9283a 	div	r4,r2,r3
 1003a10:	20c7383a 	mul	r3,r4,r3
 1003a14:	10c7c83a 	sub	r3,r2,r3
 1003a18:	d0a00383 	ldbu	r2,-32754(gp)
 1003a1c:	10803fcc 	andi	r2,r2,255
 1003a20:	1880070e 	bge	r3,r2,1003a40 <lcdDrawLine+0x1a4>
			lcdDrawPoint(xs, ys, color);
 1003a24:	e0bffb0b 	ldhu	r2,-20(fp)
 1003a28:	e0fffc0b 	ldhu	r3,-16(fp)
 1003a2c:	e13fff0b 	ldhu	r4,-4(fp)
 1003a30:	200d883a 	mov	r6,r4
 1003a34:	180b883a 	mov	r5,r3
 1003a38:	1009883a 	mov	r4,r2
 1003a3c:	10031d40 	call	10031d4 <lcdDrawPoint>

		xerr += delta_x;
 1003a40:	e0fff217 	ldw	r3,-56(fp)
 1003a44:	e0bff917 	ldw	r2,-28(fp)
 1003a48:	1885883a 	add	r2,r3,r2
 1003a4c:	e0bff215 	stw	r2,-56(fp)
		yerr += delta_y;
 1003a50:	e0fff317 	ldw	r3,-52(fp)
 1003a54:	e0bffa17 	ldw	r2,-24(fp)
 1003a58:	1885883a 	add	r2,r3,r2
 1003a5c:	e0bff315 	stw	r2,-52(fp)
		if (xerr >= xcha) {
 1003a60:	e0fff217 	ldw	r3,-56(fp)
 1003a64:	e0bff517 	ldw	r2,-44(fp)
 1003a68:	18800916 	blt	r3,r2,1003a90 <lcdDrawLine+0x1f4>
			xerr -= distance;
 1003a6c:	e0fff217 	ldw	r3,-56(fp)
 1003a70:	e0bff417 	ldw	r2,-48(fp)
 1003a74:	1885c83a 	sub	r2,r3,r2
 1003a78:	e0bff215 	stw	r2,-56(fp)
			xs += incx;
 1003a7c:	e0bff717 	ldw	r2,-36(fp)
 1003a80:	1007883a 	mov	r3,r2
 1003a84:	e0bffb0b 	ldhu	r2,-20(fp)
 1003a88:	1885883a 	add	r2,r3,r2
 1003a8c:	e0bffb0d 	sth	r2,-20(fp)
		}
		if (yerr >= ycha) {
 1003a90:	e0fff317 	ldw	r3,-52(fp)
 1003a94:	e0bff617 	ldw	r2,-40(fp)
 1003a98:	18800916 	blt	r3,r2,1003ac0 <lcdDrawLine+0x224>
			yerr -= distance;
 1003a9c:	e0fff317 	ldw	r3,-52(fp)
 1003aa0:	e0bff417 	ldw	r2,-48(fp)
 1003aa4:	1885c83a 	sub	r2,r3,r2
 1003aa8:	e0bff315 	stw	r2,-52(fp)
			ys += incy;
 1003aac:	e0bff817 	ldw	r2,-32(fp)
 1003ab0:	1007883a 	mov	r3,r2
 1003ab4:	e0bffc0b 	ldhu	r2,-16(fp)
 1003ab8:	1885883a 	add	r2,r3,r2
 1003abc:	e0bffc0d 	sth	r2,-16(fp)
		xcha = 0;
		xerr = -(distance >> 1);
	}

	/* draw the line */
	for (t = 0; t <= distance; t++) {
 1003ac0:	e0bff10b 	ldhu	r2,-60(fp)
 1003ac4:	10800044 	addi	r2,r2,1
 1003ac8:	e0bff10d 	sth	r2,-60(fp)
 1003acc:	e0bff10b 	ldhu	r2,-60(fp)
 1003ad0:	e0fff417 	ldw	r3,-48(fp)
 1003ad4:	18bfbe0e 	bge	r3,r2,10039d0 <__alt_data_end+0xff8039d0>
		if (yerr >= ycha) {
			yerr -= distance;
			ys += incy;
		}
	}
}
 1003ad8:	0001883a 	nop
 1003adc:	e037883a 	mov	sp,fp
 1003ae0:	dfc00117 	ldw	ra,4(sp)
 1003ae4:	df000017 	ldw	fp,0(sp)
 1003ae8:	dec00204 	addi	sp,sp,8
 1003aec:	f800283a 	ret

01003af0 <lcdDrawPic>:

void lcdDrawPic(u16 xs, u16 ys, u16 row, u16 col, u16 fore, u16 back,
		volatile const u8*pcode) {
 1003af0:	defff304 	addi	sp,sp,-52
 1003af4:	dfc00c15 	stw	ra,48(sp)
 1003af8:	df000b15 	stw	fp,44(sp)
 1003afc:	df000b04 	addi	fp,sp,44
 1003b00:	2013883a 	mov	r9,r4
 1003b04:	2811883a 	mov	r8,r5
 1003b08:	300b883a 	mov	r5,r6
 1003b0c:	3809883a 	mov	r4,r7
 1003b10:	e0c00217 	ldw	r3,8(fp)
 1003b14:	e0800317 	ldw	r2,12(fp)
 1003b18:	e27ffa0d 	sth	r9,-24(fp)
 1003b1c:	e23ffb0d 	sth	r8,-20(fp)
 1003b20:	e17ffc0d 	sth	r5,-16(fp)
 1003b24:	e13ffd0d 	sth	r4,-12(fp)
 1003b28:	e0fffe0d 	sth	r3,-8(fp)
 1003b2c:	e0bfff0d 	sth	r2,-4(fp)
	u8 MULX = 1, MULY = 1;
 1003b30:	00800044 	movi	r2,1
 1003b34:	e0bff705 	stb	r2,-36(fp)
 1003b38:	00800044 	movi	r2,1
 1003b3c:	e0bff745 	stb	r2,-35(fp)
	int i, j;
	u8 b;
	u32 pos;
	lcdWriteCommand(0x002A);
 1003b40:	01000a84 	movi	r4,42
 1003b44:	10030640 	call	1003064 <lcdWriteCommand>
	lcdWriteData(xs >> 8);
 1003b48:	e0bffa0b 	ldhu	r2,-24(fp)
 1003b4c:	1004d23a 	srli	r2,r2,8
 1003b50:	10bfffcc 	andi	r2,r2,65535
 1003b54:	1009883a 	mov	r4,r2
 1003b58:	100309c0 	call	100309c <lcdWriteData>
	lcdWriteData(xs & 0x00ff);
 1003b5c:	e0bffa0b 	ldhu	r2,-24(fp)
 1003b60:	10803fcc 	andi	r2,r2,255
 1003b64:	1009883a 	mov	r4,r2
 1003b68:	100309c0 	call	100309c <lcdWriteData>
	lcdWriteData((xs + col * MULX - 1) >> 8);
 1003b6c:	e0fffa0b 	ldhu	r3,-24(fp)
 1003b70:	e13ffd0b 	ldhu	r4,-12(fp)
 1003b74:	e0bff703 	ldbu	r2,-36(fp)
 1003b78:	2085383a 	mul	r2,r4,r2
 1003b7c:	1885883a 	add	r2,r3,r2
 1003b80:	10bfffc4 	addi	r2,r2,-1
 1003b84:	1005d23a 	srai	r2,r2,8
 1003b88:	10bfffcc 	andi	r2,r2,65535
 1003b8c:	1009883a 	mov	r4,r2
 1003b90:	100309c0 	call	100309c <lcdWriteData>
	lcdWriteData((xs + col * MULX - 1) & 0x00ff);
 1003b94:	e0fff703 	ldbu	r3,-36(fp)
 1003b98:	e0bffd0b 	ldhu	r2,-12(fp)
 1003b9c:	1885383a 	mul	r2,r3,r2
 1003ba0:	1007883a 	mov	r3,r2
 1003ba4:	e0bffa0b 	ldhu	r2,-24(fp)
 1003ba8:	1885883a 	add	r2,r3,r2
 1003bac:	10bfffc4 	addi	r2,r2,-1
 1003bb0:	10bfffcc 	andi	r2,r2,65535
 1003bb4:	10803fcc 	andi	r2,r2,255
 1003bb8:	1009883a 	mov	r4,r2
 1003bbc:	100309c0 	call	100309c <lcdWriteData>

	lcdWriteCommand(0x002B);
 1003bc0:	01000ac4 	movi	r4,43
 1003bc4:	10030640 	call	1003064 <lcdWriteCommand>
	lcdWriteData(ys >> 8);
 1003bc8:	e0bffb0b 	ldhu	r2,-20(fp)
 1003bcc:	1004d23a 	srli	r2,r2,8
 1003bd0:	10bfffcc 	andi	r2,r2,65535
 1003bd4:	1009883a 	mov	r4,r2
 1003bd8:	100309c0 	call	100309c <lcdWriteData>
	lcdWriteData(ys & 0x00ff);
 1003bdc:	e0bffb0b 	ldhu	r2,-20(fp)
 1003be0:	10803fcc 	andi	r2,r2,255
 1003be4:	1009883a 	mov	r4,r2
 1003be8:	100309c0 	call	100309c <lcdWriteData>
	lcdWriteData((ys + row * MULY - 1) >> 8);
 1003bec:	e0fffb0b 	ldhu	r3,-20(fp)
 1003bf0:	e13ffc0b 	ldhu	r4,-16(fp)
 1003bf4:	e0bff743 	ldbu	r2,-35(fp)
 1003bf8:	2085383a 	mul	r2,r4,r2
 1003bfc:	1885883a 	add	r2,r3,r2
 1003c00:	10bfffc4 	addi	r2,r2,-1
 1003c04:	1005d23a 	srai	r2,r2,8
 1003c08:	10bfffcc 	andi	r2,r2,65535
 1003c0c:	1009883a 	mov	r4,r2
 1003c10:	100309c0 	call	100309c <lcdWriteData>
	lcdWriteData((ys + row * MULY - 1) & 0x00ff);
 1003c14:	e0fff743 	ldbu	r3,-35(fp)
 1003c18:	e0bffc0b 	ldhu	r2,-16(fp)
 1003c1c:	1885383a 	mul	r2,r3,r2
 1003c20:	1007883a 	mov	r3,r2
 1003c24:	e0bffb0b 	ldhu	r2,-20(fp)
 1003c28:	1885883a 	add	r2,r3,r2
 1003c2c:	10bfffc4 	addi	r2,r2,-1
 1003c30:	10bfffcc 	andi	r2,r2,65535
 1003c34:	10803fcc 	andi	r2,r2,255
 1003c38:	1009883a 	mov	r4,r2
 1003c3c:	100309c0 	call	100309c <lcdWriteData>

	lcdWriteCommand(0x002C);
 1003c40:	01000b04 	movi	r4,44
 1003c44:	10030640 	call	1003064 <lcdWriteCommand>
	for (i = 0; i < col * MULX; i++) {
 1003c48:	e03ff515 	stw	zero,-44(fp)
 1003c4c:	00003306 	br	1003d1c <lcdDrawPic+0x22c>
		pos = (i / (8 * MULX)) * row;
 1003c50:	e0bff703 	ldbu	r2,-36(fp)
 1003c54:	100490fa 	slli	r2,r2,3
 1003c58:	e0fff517 	ldw	r3,-44(fp)
 1003c5c:	1887283a 	div	r3,r3,r2
 1003c60:	e0bffc0b 	ldhu	r2,-16(fp)
 1003c64:	1885383a 	mul	r2,r3,r2
 1003c68:	e0bff815 	stw	r2,-32(fp)

		b = 0x80 >> ((i % (8 * MULX)) / MULX);
 1003c6c:	e0bff703 	ldbu	r2,-36(fp)
 1003c70:	100690fa 	slli	r3,r2,3
 1003c74:	e0bff517 	ldw	r2,-44(fp)
 1003c78:	10c9283a 	div	r4,r2,r3
 1003c7c:	20c7383a 	mul	r3,r4,r3
 1003c80:	10c7c83a 	sub	r3,r2,r3
 1003c84:	e0bff703 	ldbu	r2,-36(fp)
 1003c88:	1885283a 	div	r2,r3,r2
 1003c8c:	00c02004 	movi	r3,128
 1003c90:	1885d83a 	sra	r2,r3,r2
 1003c94:	e0bff905 	stb	r2,-28(fp)
		for (j = 0; j < row * MULY; j++) {
 1003c98:	e03ff615 	stw	zero,-40(fp)
 1003c9c:	00001706 	br	1003cfc <lcdDrawPic+0x20c>
			if ((*(pcode + pos + (j / MULY))) & b)
 1003ca0:	e0bff743 	ldbu	r2,-35(fp)
 1003ca4:	e0fff617 	ldw	r3,-40(fp)
 1003ca8:	1885283a 	div	r2,r3,r2
 1003cac:	1007883a 	mov	r3,r2
 1003cb0:	e0bff817 	ldw	r2,-32(fp)
 1003cb4:	1885883a 	add	r2,r3,r2
 1003cb8:	e0c00417 	ldw	r3,16(fp)
 1003cbc:	1885883a 	add	r2,r3,r2
 1003cc0:	10c00003 	ldbu	r3,0(r2)
 1003cc4:	e0bff903 	ldbu	r2,-28(fp)
 1003cc8:	1884703a 	and	r2,r3,r2
 1003ccc:	10803fcc 	andi	r2,r2,255
 1003cd0:	10000426 	beq	r2,zero,1003ce4 <lcdDrawPic+0x1f4>
				lcdWriteData(fore);
 1003cd4:	e0bffe0b 	ldhu	r2,-8(fp)
 1003cd8:	1009883a 	mov	r4,r2
 1003cdc:	100309c0 	call	100309c <lcdWriteData>
 1003ce0:	00000306 	br	1003cf0 <lcdDrawPic+0x200>
			else
				lcdWriteData(back);
 1003ce4:	e0bfff0b 	ldhu	r2,-4(fp)
 1003ce8:	1009883a 	mov	r4,r2
 1003cec:	100309c0 	call	100309c <lcdWriteData>
	lcdWriteCommand(0x002C);
	for (i = 0; i < col * MULX; i++) {
		pos = (i / (8 * MULX)) * row;

		b = 0x80 >> ((i % (8 * MULX)) / MULX);
		for (j = 0; j < row * MULY; j++) {
 1003cf0:	e0bff617 	ldw	r2,-40(fp)
 1003cf4:	10800044 	addi	r2,r2,1
 1003cf8:	e0bff615 	stw	r2,-40(fp)
 1003cfc:	e0fffc0b 	ldhu	r3,-16(fp)
 1003d00:	e0bff743 	ldbu	r2,-35(fp)
 1003d04:	1885383a 	mul	r2,r3,r2
 1003d08:	e0fff617 	ldw	r3,-40(fp)
 1003d0c:	18bfe416 	blt	r3,r2,1003ca0 <__alt_data_end+0xff803ca0>
	lcdWriteData(ys & 0x00ff);
	lcdWriteData((ys + row * MULY - 1) >> 8);
	lcdWriteData((ys + row * MULY - 1) & 0x00ff);

	lcdWriteCommand(0x002C);
	for (i = 0; i < col * MULX; i++) {
 1003d10:	e0bff517 	ldw	r2,-44(fp)
 1003d14:	10800044 	addi	r2,r2,1
 1003d18:	e0bff515 	stw	r2,-44(fp)
 1003d1c:	e0fffd0b 	ldhu	r3,-12(fp)
 1003d20:	e0bff703 	ldbu	r2,-36(fp)
 1003d24:	1885383a 	mul	r2,r3,r2
 1003d28:	e0fff517 	ldw	r3,-44(fp)
 1003d2c:	18bfc816 	blt	r3,r2,1003c50 <__alt_data_end+0xff803c50>
				lcdWriteData(fore);
			else
				lcdWriteData(back);
		}
	}
}
 1003d30:	0001883a 	nop
 1003d34:	e037883a 	mov	sp,fp
 1003d38:	dfc00117 	ldw	ra,4(sp)
 1003d3c:	df000017 	ldw	fp,0(sp)
 1003d40:	dec00204 	addi	sp,sp,8
 1003d44:	f800283a 	ret

01003d48 <lcdDrawRectan>:

//
void lcdDrawRectan(u16 xs, u16 ys, u16 len, u16 wid,u16 color)
{
 1003d48:	defff904 	addi	sp,sp,-28
 1003d4c:	dfc00615 	stw	ra,24(sp)
 1003d50:	df000515 	stw	fp,20(sp)
 1003d54:	df000504 	addi	fp,sp,20
 1003d58:	2011883a 	mov	r8,r4
 1003d5c:	3009883a 	mov	r4,r6
 1003d60:	3807883a 	mov	r3,r7
 1003d64:	e0800217 	ldw	r2,8(fp)
 1003d68:	e23ffb0d 	sth	r8,-20(fp)
 1003d6c:	e17ffc0d 	sth	r5,-16(fp)
 1003d70:	e13ffd0d 	sth	r4,-12(fp)
 1003d74:	e0fffe0d 	sth	r3,-8(fp)
 1003d78:	e0bfff0d 	sth	r2,-4(fp)
	lcdDrawVerLine(xs, ys, ys+wid, color);
 1003d7c:	e13ffb0b 	ldhu	r4,-20(fp)
 1003d80:	e17ffc0b 	ldhu	r5,-16(fp)
 1003d84:	e0fffc0b 	ldhu	r3,-16(fp)
 1003d88:	e0bffe0b 	ldhu	r2,-8(fp)
 1003d8c:	1885883a 	add	r2,r3,r2
 1003d90:	10bfffcc 	andi	r2,r2,65535
 1003d94:	e0ffff0b 	ldhu	r3,-4(fp)
 1003d98:	180f883a 	mov	r7,r3
 1003d9c:	100d883a 	mov	r6,r2
 1003da0:	10034300 	call	1003430 <lcdDrawVerLine>
    lcdDrawVerLine(xs+len, ys, ys+wid, color);
 1003da4:	e0fffb0b 	ldhu	r3,-20(fp)
 1003da8:	e0bffd0b 	ldhu	r2,-12(fp)
 1003dac:	1885883a 	add	r2,r3,r2
 1003db0:	113fffcc 	andi	r4,r2,65535
 1003db4:	e17ffc0b 	ldhu	r5,-16(fp)
 1003db8:	e0fffc0b 	ldhu	r3,-16(fp)
 1003dbc:	e0bffe0b 	ldhu	r2,-8(fp)
 1003dc0:	1885883a 	add	r2,r3,r2
 1003dc4:	10bfffcc 	andi	r2,r2,65535
 1003dc8:	e0ffff0b 	ldhu	r3,-4(fp)
 1003dcc:	180f883a 	mov	r7,r3
 1003dd0:	100d883a 	mov	r6,r2
 1003dd4:	10034300 	call	1003430 <lcdDrawVerLine>
	lcdDrawHorLine(ys, xs, xs+len, color);
 1003dd8:	e13ffc0b 	ldhu	r4,-16(fp)
 1003ddc:	e17ffb0b 	ldhu	r5,-20(fp)
 1003de0:	e0fffb0b 	ldhu	r3,-20(fp)
 1003de4:	e0bffd0b 	ldhu	r2,-12(fp)
 1003de8:	1885883a 	add	r2,r3,r2
 1003dec:	10bfffcc 	andi	r2,r2,65535
 1003df0:	e0ffff0b 	ldhu	r3,-4(fp)
 1003df4:	180f883a 	mov	r7,r3
 1003df8:	100d883a 	mov	r6,r2
 1003dfc:	10036680 	call	1003668 <lcdDrawHorLine>
	lcdDrawHorLine(ys+wid, xs, xs+len, color);
 1003e00:	e0fffc0b 	ldhu	r3,-16(fp)
 1003e04:	e0bffe0b 	ldhu	r2,-8(fp)
 1003e08:	1885883a 	add	r2,r3,r2
 1003e0c:	113fffcc 	andi	r4,r2,65535
 1003e10:	e17ffb0b 	ldhu	r5,-20(fp)
 1003e14:	e0fffb0b 	ldhu	r3,-20(fp)
 1003e18:	e0bffd0b 	ldhu	r2,-12(fp)
 1003e1c:	1885883a 	add	r2,r3,r2
 1003e20:	10bfffcc 	andi	r2,r2,65535
 1003e24:	e0ffff0b 	ldhu	r3,-4(fp)
 1003e28:	180f883a 	mov	r7,r3
 1003e2c:	100d883a 	mov	r6,r2
 1003e30:	10036680 	call	1003668 <lcdDrawHorLine>
}
 1003e34:	0001883a 	nop
 1003e38:	e037883a 	mov	sp,fp
 1003e3c:	dfc00117 	ldw	ra,4(sp)
 1003e40:	df000017 	ldw	fp,0(sp)
 1003e44:	dec00204 	addi	sp,sp,8
 1003e48:	f800283a 	ret

01003e4c <lcdDrawGrid>:

void lcdDrawGrid(u16 xs, u16 ys, u8 row, u8 col, u8 width, u16 color) {
 1003e4c:	defff604 	addi	sp,sp,-40
 1003e50:	dfc00915 	stw	ra,36(sp)
 1003e54:	df000815 	stw	fp,32(sp)
 1003e58:	df000804 	addi	fp,sp,32
 1003e5c:	2013883a 	mov	r9,r4
 1003e60:	2811883a 	mov	r8,r5
 1003e64:	300b883a 	mov	r5,r6
 1003e68:	3809883a 	mov	r4,r7
 1003e6c:	e0c00217 	ldw	r3,8(fp)
 1003e70:	e0800317 	ldw	r2,12(fp)
 1003e74:	e27ffa0d 	sth	r9,-24(fp)
 1003e78:	e23ffb0d 	sth	r8,-20(fp)
 1003e7c:	e17ffc05 	stb	r5,-16(fp)
 1003e80:	e13ffd05 	stb	r4,-12(fp)
 1003e84:	e0fffe05 	stb	r3,-8(fp)
 1003e88:	e0bfff0d 	sth	r2,-4(fp)

	u8 i, j;

	lcdDrawVerLine(xs, ys, ys + row * width, color);
 1003e8c:	e13ffa0b 	ldhu	r4,-24(fp)
 1003e90:	e17ffb0b 	ldhu	r5,-20(fp)
 1003e94:	e0fffc03 	ldbu	r3,-16(fp)
 1003e98:	e0bffe03 	ldbu	r2,-8(fp)
 1003e9c:	1885383a 	mul	r2,r3,r2
 1003ea0:	1007883a 	mov	r3,r2
 1003ea4:	e0bffb0b 	ldhu	r2,-20(fp)
 1003ea8:	1885883a 	add	r2,r3,r2
 1003eac:	10bfffcc 	andi	r2,r2,65535
 1003eb0:	e0ffff0b 	ldhu	r3,-4(fp)
 1003eb4:	180f883a 	mov	r7,r3
 1003eb8:	100d883a 	mov	r6,r2
 1003ebc:	10034300 	call	1003430 <lcdDrawVerLine>
	lcdDrawVerLine(xs + col * width, ys, ys + row * width, color);
 1003ec0:	e0fffd03 	ldbu	r3,-12(fp)
 1003ec4:	e0bffe03 	ldbu	r2,-8(fp)
 1003ec8:	1885383a 	mul	r2,r3,r2
 1003ecc:	1007883a 	mov	r3,r2
 1003ed0:	e0bffa0b 	ldhu	r2,-24(fp)
 1003ed4:	1885883a 	add	r2,r3,r2
 1003ed8:	113fffcc 	andi	r4,r2,65535
 1003edc:	e17ffb0b 	ldhu	r5,-20(fp)
 1003ee0:	e0fffc03 	ldbu	r3,-16(fp)
 1003ee4:	e0bffe03 	ldbu	r2,-8(fp)
 1003ee8:	1885383a 	mul	r2,r3,r2
 1003eec:	1007883a 	mov	r3,r2
 1003ef0:	e0bffb0b 	ldhu	r2,-20(fp)
 1003ef4:	1885883a 	add	r2,r3,r2
 1003ef8:	10bfffcc 	andi	r2,r2,65535
 1003efc:	e0ffff0b 	ldhu	r3,-4(fp)
 1003f00:	180f883a 	mov	r7,r3
 1003f04:	100d883a 	mov	r6,r2
 1003f08:	10034300 	call	1003430 <lcdDrawVerLine>
	lcdDrawHorLine(ys, xs, xs + col * width, color);
 1003f0c:	e13ffb0b 	ldhu	r4,-20(fp)
 1003f10:	e17ffa0b 	ldhu	r5,-24(fp)
 1003f14:	e0fffd03 	ldbu	r3,-12(fp)
 1003f18:	e0bffe03 	ldbu	r2,-8(fp)
 1003f1c:	1885383a 	mul	r2,r3,r2
 1003f20:	1007883a 	mov	r3,r2
 1003f24:	e0bffa0b 	ldhu	r2,-24(fp)
 1003f28:	1885883a 	add	r2,r3,r2
 1003f2c:	10bfffcc 	andi	r2,r2,65535
 1003f30:	e0ffff0b 	ldhu	r3,-4(fp)
 1003f34:	180f883a 	mov	r7,r3
 1003f38:	100d883a 	mov	r6,r2
 1003f3c:	10036680 	call	1003668 <lcdDrawHorLine>
	lcdDrawHorLine(ys + row * width, xs, xs + col * width, color);
 1003f40:	e0fffc03 	ldbu	r3,-16(fp)
 1003f44:	e0bffe03 	ldbu	r2,-8(fp)
 1003f48:	1885383a 	mul	r2,r3,r2
 1003f4c:	1007883a 	mov	r3,r2
 1003f50:	e0bffb0b 	ldhu	r2,-20(fp)
 1003f54:	1885883a 	add	r2,r3,r2
 1003f58:	113fffcc 	andi	r4,r2,65535
 1003f5c:	e17ffa0b 	ldhu	r5,-24(fp)
 1003f60:	e0fffd03 	ldbu	r3,-12(fp)
 1003f64:	e0bffe03 	ldbu	r2,-8(fp)
 1003f68:	1885383a 	mul	r2,r3,r2
 1003f6c:	1007883a 	mov	r3,r2
 1003f70:	e0bffa0b 	ldhu	r2,-24(fp)
 1003f74:	1885883a 	add	r2,r3,r2
 1003f78:	10bfffcc 	andi	r2,r2,65535
 1003f7c:	e0ffff0b 	ldhu	r3,-4(fp)
 1003f80:	180f883a 	mov	r7,r3
 1003f84:	100d883a 	mov	r6,r2
 1003f88:	10036680 	call	1003668 <lcdDrawHorLine>

	for (i = 1; i < 5 * (col+0) ; i++)
 1003f8c:	00800044 	movi	r2,1
 1003f90:	e0bff805 	stb	r2,-32(fp)
 1003f94:	00002506 	br	100402c <lcdDrawGrid+0x1e0>
		lcdDrawVerLine(xs + (width / 5) * i, ys + width * (row / 2) - 1,
 1003f98:	e0fffe03 	ldbu	r3,-8(fp)
 1003f9c:	00800144 	movi	r2,5
 1003fa0:	1885203a 	divu	r2,r3,r2
 1003fa4:	10c03fcc 	andi	r3,r2,255
 1003fa8:	e0bff803 	ldbu	r2,-32(fp)
 1003fac:	1885383a 	mul	r2,r3,r2
 1003fb0:	1007883a 	mov	r3,r2
 1003fb4:	e0bffa0b 	ldhu	r2,-24(fp)
 1003fb8:	1885883a 	add	r2,r3,r2
 1003fbc:	113fffcc 	andi	r4,r2,65535
 1003fc0:	e0fffe03 	ldbu	r3,-8(fp)
 1003fc4:	e0bffc03 	ldbu	r2,-16(fp)
 1003fc8:	1004d07a 	srli	r2,r2,1
 1003fcc:	10803fcc 	andi	r2,r2,255
 1003fd0:	1885383a 	mul	r2,r3,r2
 1003fd4:	1007883a 	mov	r3,r2
 1003fd8:	e0bffb0b 	ldhu	r2,-20(fp)
 1003fdc:	1885883a 	add	r2,r3,r2
 1003fe0:	10bfffc4 	addi	r2,r2,-1
 1003fe4:	117fffcc 	andi	r5,r2,65535
 1003fe8:	e0fffe03 	ldbu	r3,-8(fp)
 1003fec:	e0bffc03 	ldbu	r2,-16(fp)
 1003ff0:	1004d07a 	srli	r2,r2,1
 1003ff4:	10803fcc 	andi	r2,r2,255
 1003ff8:	1885383a 	mul	r2,r3,r2
 1003ffc:	1007883a 	mov	r3,r2
 1004000:	e0bffb0b 	ldhu	r2,-20(fp)
 1004004:	1885883a 	add	r2,r3,r2
 1004008:	10800044 	addi	r2,r2,1
 100400c:	10bfffcc 	andi	r2,r2,65535
 1004010:	e0ffff0b 	ldhu	r3,-4(fp)
 1004014:	180f883a 	mov	r7,r3
 1004018:	100d883a 	mov	r6,r2
 100401c:	10034300 	call	1003430 <lcdDrawVerLine>
	lcdDrawVerLine(xs, ys, ys + row * width, color);
	lcdDrawVerLine(xs + col * width, ys, ys + row * width, color);
	lcdDrawHorLine(ys, xs, xs + col * width, color);
	lcdDrawHorLine(ys + row * width, xs, xs + col * width, color);

	for (i = 1; i < 5 * (col+0) ; i++)
 1004020:	e0bff803 	ldbu	r2,-32(fp)
 1004024:	10800044 	addi	r2,r2,1
 1004028:	e0bff805 	stb	r2,-32(fp)
 100402c:	e0fff803 	ldbu	r3,-32(fp)
 1004030:	e0bffd03 	ldbu	r2,-12(fp)
 1004034:	10800164 	muli	r2,r2,5
 1004038:	18bfd716 	blt	r3,r2,1003f98 <__alt_data_end+0xff803f98>
		lcdDrawVerLine(xs + (width / 5) * i, ys + width * (row / 2) - 1,
				ys + width * (row / 2) + 1, color);
	for (i = 1; i < 5 * (row+0); i++)
 100403c:	00800044 	movi	r2,1
 1004040:	e0bff805 	stb	r2,-32(fp)
 1004044:	00002506 	br	10040dc <lcdDrawGrid+0x290>
		lcdDrawHorLine(ys + (width / 5) * i, xs + width * (col / 2) - 1,
 1004048:	e0fffe03 	ldbu	r3,-8(fp)
 100404c:	00800144 	movi	r2,5
 1004050:	1885203a 	divu	r2,r3,r2
 1004054:	10c03fcc 	andi	r3,r2,255
 1004058:	e0bff803 	ldbu	r2,-32(fp)
 100405c:	1885383a 	mul	r2,r3,r2
 1004060:	1007883a 	mov	r3,r2
 1004064:	e0bffb0b 	ldhu	r2,-20(fp)
 1004068:	1885883a 	add	r2,r3,r2
 100406c:	113fffcc 	andi	r4,r2,65535
 1004070:	e0fffe03 	ldbu	r3,-8(fp)
 1004074:	e0bffd03 	ldbu	r2,-12(fp)
 1004078:	1004d07a 	srli	r2,r2,1
 100407c:	10803fcc 	andi	r2,r2,255
 1004080:	1885383a 	mul	r2,r3,r2
 1004084:	1007883a 	mov	r3,r2
 1004088:	e0bffa0b 	ldhu	r2,-24(fp)
 100408c:	1885883a 	add	r2,r3,r2
 1004090:	10bfffc4 	addi	r2,r2,-1
 1004094:	117fffcc 	andi	r5,r2,65535
 1004098:	e0fffe03 	ldbu	r3,-8(fp)
 100409c:	e0bffd03 	ldbu	r2,-12(fp)
 10040a0:	1004d07a 	srli	r2,r2,1
 10040a4:	10803fcc 	andi	r2,r2,255
 10040a8:	1885383a 	mul	r2,r3,r2
 10040ac:	1007883a 	mov	r3,r2
 10040b0:	e0bffa0b 	ldhu	r2,-24(fp)
 10040b4:	1885883a 	add	r2,r3,r2
 10040b8:	10800044 	addi	r2,r2,1
 10040bc:	10bfffcc 	andi	r2,r2,65535
 10040c0:	e0ffff0b 	ldhu	r3,-4(fp)
 10040c4:	180f883a 	mov	r7,r3
 10040c8:	100d883a 	mov	r6,r2
 10040cc:	10036680 	call	1003668 <lcdDrawHorLine>
	lcdDrawHorLine(ys + row * width, xs, xs + col * width, color);

	for (i = 1; i < 5 * (col+0) ; i++)
		lcdDrawVerLine(xs + (width / 5) * i, ys + width * (row / 2) - 1,
				ys + width * (row / 2) + 1, color);
	for (i = 1; i < 5 * (row+0); i++)
 10040d0:	e0bff803 	ldbu	r2,-32(fp)
 10040d4:	10800044 	addi	r2,r2,1
 10040d8:	e0bff805 	stb	r2,-32(fp)
 10040dc:	e0fff803 	ldbu	r3,-32(fp)
 10040e0:	e0bffc03 	ldbu	r2,-16(fp)
 10040e4:	10800164 	muli	r2,r2,5
 10040e8:	18bfd716 	blt	r3,r2,1004048 <__alt_data_end+0xff804048>
		lcdDrawHorLine(ys + (width / 5) * i, xs + width * (col / 2) - 1,
				xs + width * (col / 2) + 1, color);

	for (j = 1; j < col; j++) {
 10040ec:	00800044 	movi	r2,1
 10040f0:	e0bff845 	stb	r2,-31(fp)
 10040f4:	00002306 	br	1004184 <lcdDrawGrid+0x338>
		u16 x = xs + j * width;
 10040f8:	e0fff843 	ldbu	r3,-31(fp)
 10040fc:	e0bffe03 	ldbu	r2,-8(fp)
 1004100:	1885383a 	mul	r2,r3,r2
 1004104:	1007883a 	mov	r3,r2
 1004108:	e0bffa0b 	ldhu	r2,-24(fp)
 100410c:	1885883a 	add	r2,r3,r2
 1004110:	e0bff88d 	sth	r2,-30(fp)
		for (i = 1; i < 5 * (row+0); i++)
 1004114:	00800044 	movi	r2,1
 1004118:	e0bff805 	stb	r2,-32(fp)
 100411c:	00001206 	br	1004168 <lcdDrawGrid+0x31c>
			lcdDrawPoint(x, ys + (width / 5) * i, color);
 1004120:	e13ff88b 	ldhu	r4,-30(fp)
 1004124:	e0fffe03 	ldbu	r3,-8(fp)
 1004128:	00800144 	movi	r2,5
 100412c:	1885203a 	divu	r2,r3,r2
 1004130:	10c03fcc 	andi	r3,r2,255
 1004134:	e0bff803 	ldbu	r2,-32(fp)
 1004138:	1885383a 	mul	r2,r3,r2
 100413c:	1007883a 	mov	r3,r2
 1004140:	e0bffb0b 	ldhu	r2,-20(fp)
 1004144:	1885883a 	add	r2,r3,r2
 1004148:	10bfffcc 	andi	r2,r2,65535
 100414c:	e0ffff0b 	ldhu	r3,-4(fp)
 1004150:	180d883a 	mov	r6,r3
 1004154:	100b883a 	mov	r5,r2
 1004158:	10031d40 	call	10031d4 <lcdDrawPoint>
		lcdDrawHorLine(ys + (width / 5) * i, xs + width * (col / 2) - 1,
				xs + width * (col / 2) + 1, color);

	for (j = 1; j < col; j++) {
		u16 x = xs + j * width;
		for (i = 1; i < 5 * (row+0); i++)
 100415c:	e0bff803 	ldbu	r2,-32(fp)
 1004160:	10800044 	addi	r2,r2,1
 1004164:	e0bff805 	stb	r2,-32(fp)
 1004168:	e0fff803 	ldbu	r3,-32(fp)
 100416c:	e0bffc03 	ldbu	r2,-16(fp)
 1004170:	10800164 	muli	r2,r2,5
 1004174:	18bfea16 	blt	r3,r2,1004120 <__alt_data_end+0xff804120>
				ys + width * (row / 2) + 1, color);
	for (i = 1; i < 5 * (row+0); i++)
		lcdDrawHorLine(ys + (width / 5) * i, xs + width * (col / 2) - 1,
				xs + width * (col / 2) + 1, color);

	for (j = 1; j < col; j++) {
 1004178:	e0bff843 	ldbu	r2,-31(fp)
 100417c:	10800044 	addi	r2,r2,1
 1004180:	e0bff845 	stb	r2,-31(fp)
 1004184:	e0fff843 	ldbu	r3,-31(fp)
 1004188:	e0bffd03 	ldbu	r2,-12(fp)
 100418c:	18bfda36 	bltu	r3,r2,10040f8 <__alt_data_end+0xff8040f8>
		u16 x = xs + j * width;
		for (i = 1; i < 5 * (row+0); i++)
			lcdDrawPoint(x, ys + (width / 5) * i, color);
	}
	for (j = 1; j < row; j++) {
 1004190:	00800044 	movi	r2,1
 1004194:	e0bff845 	stb	r2,-31(fp)
 1004198:	00002406 	br	100422c <lcdDrawGrid+0x3e0>
		u16 y = ys + j * width;
 100419c:	e0fff843 	ldbu	r3,-31(fp)
 10041a0:	e0bffe03 	ldbu	r2,-8(fp)
 10041a4:	1885383a 	mul	r2,r3,r2
 10041a8:	1007883a 	mov	r3,r2
 10041ac:	e0bffb0b 	ldhu	r2,-20(fp)
 10041b0:	1885883a 	add	r2,r3,r2
 10041b4:	e0bff90d 	sth	r2,-28(fp)
		for (i = 1; i < 5 * (col+0); i++)
 10041b8:	00800044 	movi	r2,1
 10041bc:	e0bff805 	stb	r2,-32(fp)
 10041c0:	00001306 	br	1004210 <lcdDrawGrid+0x3c4>
			lcdDrawPoint(xs + (width / 5) * i, y, color);
 10041c4:	e0fffe03 	ldbu	r3,-8(fp)
 10041c8:	00800144 	movi	r2,5
 10041cc:	1885203a 	divu	r2,r3,r2
 10041d0:	10c03fcc 	andi	r3,r2,255
 10041d4:	e0bff803 	ldbu	r2,-32(fp)
 10041d8:	1885383a 	mul	r2,r3,r2
 10041dc:	1007883a 	mov	r3,r2
 10041e0:	e0bffa0b 	ldhu	r2,-24(fp)
 10041e4:	1885883a 	add	r2,r3,r2
 10041e8:	10bfffcc 	andi	r2,r2,65535
 10041ec:	e0fff90b 	ldhu	r3,-28(fp)
 10041f0:	e13fff0b 	ldhu	r4,-4(fp)
 10041f4:	200d883a 	mov	r6,r4
 10041f8:	180b883a 	mov	r5,r3
 10041fc:	1009883a 	mov	r4,r2
 1004200:	10031d40 	call	10031d4 <lcdDrawPoint>
		for (i = 1; i < 5 * (row+0); i++)
			lcdDrawPoint(x, ys + (width / 5) * i, color);
	}
	for (j = 1; j < row; j++) {
		u16 y = ys + j * width;
		for (i = 1; i < 5 * (col+0); i++)
 1004204:	e0bff803 	ldbu	r2,-32(fp)
 1004208:	10800044 	addi	r2,r2,1
 100420c:	e0bff805 	stb	r2,-32(fp)
 1004210:	e0fff803 	ldbu	r3,-32(fp)
 1004214:	e0bffd03 	ldbu	r2,-12(fp)
 1004218:	10800164 	muli	r2,r2,5
 100421c:	18bfe916 	blt	r3,r2,10041c4 <__alt_data_end+0xff8041c4>
	for (j = 1; j < col; j++) {
		u16 x = xs + j * width;
		for (i = 1; i < 5 * (row+0); i++)
			lcdDrawPoint(x, ys + (width / 5) * i, color);
	}
	for (j = 1; j < row; j++) {
 1004220:	e0bff843 	ldbu	r2,-31(fp)
 1004224:	10800044 	addi	r2,r2,1
 1004228:	e0bff845 	stb	r2,-31(fp)
 100422c:	e0fff843 	ldbu	r3,-31(fp)
 1004230:	e0bffc03 	ldbu	r2,-16(fp)
 1004234:	18bfd936 	bltu	r3,r2,100419c <__alt_data_end+0xff80419c>
		u16 y = ys + j * width;
		for (i = 1; i < 5 * col; i++)
			lcdDrawPoint(xs + (width / 5) * i, y, color);
	}
	*/
}
 1004238:	0001883a 	nop
 100423c:	e037883a 	mov	sp,fp
 1004240:	dfc00117 	ldw	ra,4(sp)
 1004244:	df000017 	ldw	fp,0(sp)
 1004248:	dec00204 	addi	sp,sp,8
 100424c:	f800283a 	ret

01004250 <lcdDispStringSmall>:

void lcdDispStringSmall(u16 xs, u16 ys, u16 fore, u16 back, const char*str) {
 1004250:	defff604 	addi	sp,sp,-40
 1004254:	dfc00915 	stw	ra,36(sp)
 1004258:	df000815 	stw	fp,32(sp)
 100425c:	df000804 	addi	fp,sp,32
 1004260:	2011883a 	mov	r8,r4
 1004264:	2809883a 	mov	r4,r5
 1004268:	3007883a 	mov	r3,r6
 100426c:	3805883a 	mov	r2,r7
 1004270:	e23ffc0d 	sth	r8,-16(fp)
 1004274:	e13ffd0d 	sth	r4,-12(fp)
 1004278:	e0fffe0d 	sth	r3,-8(fp)
 100427c:	e0bfff0d 	sth	r2,-4(fp)
	u8 k = 0;
 1004280:	e03ffb05 	stb	zero,-20(fp)
	while (str[k] != 0) {
 1004284:	00002006 	br	1004308 <lcdDispStringSmall+0xb8>
		lcdDrawPic(xs + k * 8, ys, 16, 8, fore, back, ASCII8_16[str[k] - ' ']);
 1004288:	e0bffb03 	ldbu	r2,-20(fp)
 100428c:	100490fa 	slli	r2,r2,3
 1004290:	1007883a 	mov	r3,r2
 1004294:	e0bffc0b 	ldhu	r2,-16(fp)
 1004298:	1885883a 	add	r2,r3,r2
 100429c:	123fffcc 	andi	r8,r2,65535
 10042a0:	e27ffd0b 	ldhu	r9,-12(fp)
 10042a4:	e0fffe0b 	ldhu	r3,-8(fp)
 10042a8:	e13fff0b 	ldhu	r4,-4(fp)
 10042ac:	e0bffb03 	ldbu	r2,-20(fp)
 10042b0:	e1400217 	ldw	r5,8(fp)
 10042b4:	2885883a 	add	r2,r5,r2
 10042b8:	10800003 	ldbu	r2,0(r2)
 10042bc:	10803fcc 	andi	r2,r2,255
 10042c0:	1080201c 	xori	r2,r2,128
 10042c4:	10bfe004 	addi	r2,r2,-128
 10042c8:	10bff804 	addi	r2,r2,-32
 10042cc:	100a913a 	slli	r5,r2,4
 10042d0:	008040b4 	movhi	r2,258
 10042d4:	1095af04 	addi	r2,r2,22204
 10042d8:	2885883a 	add	r2,r5,r2
 10042dc:	d8800215 	stw	r2,8(sp)
 10042e0:	d9000115 	stw	r4,4(sp)
 10042e4:	d8c00015 	stw	r3,0(sp)
 10042e8:	01c00204 	movi	r7,8
 10042ec:	01800404 	movi	r6,16
 10042f0:	480b883a 	mov	r5,r9
 10042f4:	4009883a 	mov	r4,r8
 10042f8:	1003af00 	call	1003af0 <lcdDrawPic>
		k++;
 10042fc:	e0bffb03 	ldbu	r2,-20(fp)
 1004300:	10800044 	addi	r2,r2,1
 1004304:	e0bffb05 	stb	r2,-20(fp)
	*/
}

void lcdDispStringSmall(u16 xs, u16 ys, u16 fore, u16 back, const char*str) {
	u8 k = 0;
	while (str[k] != 0) {
 1004308:	e0bffb03 	ldbu	r2,-20(fp)
 100430c:	e0c00217 	ldw	r3,8(fp)
 1004310:	1885883a 	add	r2,r3,r2
 1004314:	10800003 	ldbu	r2,0(r2)
 1004318:	10803fcc 	andi	r2,r2,255
 100431c:	1080201c 	xori	r2,r2,128
 1004320:	10bfe004 	addi	r2,r2,-128
 1004324:	103fd81e 	bne	r2,zero,1004288 <__alt_data_end+0xff804288>
		lcdDrawPic(xs + k * 8, ys, 16, 8, fore, back, ASCII8_16[str[k] - ' ']);
		k++;
	}
}
 1004328:	0001883a 	nop
 100432c:	e037883a 	mov	sp,fp
 1004330:	dfc00117 	ldw	ra,4(sp)
 1004334:	df000017 	ldw	fp,0(sp)
 1004338:	dec00204 	addi	sp,sp,8
 100433c:	f800283a 	ret

01004340 <lcdDispStringBig>:

void lcdDispStringBig(u16 xs, u16 ys, u16 fore, u16 back, const char*str) {
 1004340:	defff604 	addi	sp,sp,-40
 1004344:	dfc00915 	stw	ra,36(sp)
 1004348:	df000815 	stw	fp,32(sp)
 100434c:	df000804 	addi	fp,sp,32
 1004350:	2011883a 	mov	r8,r4
 1004354:	2809883a 	mov	r4,r5
 1004358:	3007883a 	mov	r3,r6
 100435c:	3805883a 	mov	r2,r7
 1004360:	e23ffc0d 	sth	r8,-16(fp)
 1004364:	e13ffd0d 	sth	r4,-12(fp)
 1004368:	e0fffe0d 	sth	r3,-8(fp)
 100436c:	e0bfff0d 	sth	r2,-4(fp)
	u8 k = 0;
 1004370:	e03ffb05 	stb	zero,-20(fp)
	while (str[k] != 0) {
 1004374:	00002006 	br	10043f8 <lcdDispStringBig+0xb8>
		lcdDrawPic(xs + k * 12, ys, 24, 12, fore, back,
 1004378:	e0bffb03 	ldbu	r2,-20(fp)
 100437c:	10800324 	muli	r2,r2,12
 1004380:	1007883a 	mov	r3,r2
 1004384:	e0bffc0b 	ldhu	r2,-16(fp)
 1004388:	1885883a 	add	r2,r3,r2
 100438c:	123fffcc 	andi	r8,r2,65535
 1004390:	e27ffd0b 	ldhu	r9,-12(fp)
 1004394:	e0fffe0b 	ldhu	r3,-8(fp)
 1004398:	e13fff0b 	ldhu	r4,-4(fp)
				ASCII12_24[str[k] - ' ']);
 100439c:	e0bffb03 	ldbu	r2,-20(fp)
 10043a0:	e1400217 	ldw	r5,8(fp)
 10043a4:	2885883a 	add	r2,r5,r2
 10043a8:	10800003 	ldbu	r2,0(r2)
 10043ac:	10803fcc 	andi	r2,r2,255
 10043b0:	1080201c 	xori	r2,r2,128
 10043b4:	10bfe004 	addi	r2,r2,-128
 10043b8:	10bff804 	addi	r2,r2,-32
 10043bc:	11400c24 	muli	r5,r2,48
 10043c0:	008040b4 	movhi	r2,258
 10043c4:	10972f04 	addi	r2,r2,23740
 10043c8:	2885883a 	add	r2,r5,r2
}

void lcdDispStringBig(u16 xs, u16 ys, u16 fore, u16 back, const char*str) {
	u8 k = 0;
	while (str[k] != 0) {
		lcdDrawPic(xs + k * 12, ys, 24, 12, fore, back,
 10043cc:	d8800215 	stw	r2,8(sp)
 10043d0:	d9000115 	stw	r4,4(sp)
 10043d4:	d8c00015 	stw	r3,0(sp)
 10043d8:	01c00304 	movi	r7,12
 10043dc:	01800604 	movi	r6,24
 10043e0:	480b883a 	mov	r5,r9
 10043e4:	4009883a 	mov	r4,r8
 10043e8:	1003af00 	call	1003af0 <lcdDrawPic>
				ASCII12_24[str[k] - ' ']);
		k++;
 10043ec:	e0bffb03 	ldbu	r2,-20(fp)
 10043f0:	10800044 	addi	r2,r2,1
 10043f4:	e0bffb05 	stb	r2,-20(fp)
	}
}

void lcdDispStringBig(u16 xs, u16 ys, u16 fore, u16 back, const char*str) {
	u8 k = 0;
	while (str[k] != 0) {
 10043f8:	e0bffb03 	ldbu	r2,-20(fp)
 10043fc:	e0c00217 	ldw	r3,8(fp)
 1004400:	1885883a 	add	r2,r3,r2
 1004404:	10800003 	ldbu	r2,0(r2)
 1004408:	10803fcc 	andi	r2,r2,255
 100440c:	1080201c 	xori	r2,r2,128
 1004410:	10bfe004 	addi	r2,r2,-128
 1004414:	103fd81e 	bne	r2,zero,1004378 <__alt_data_end+0xff804378>
		lcdDrawPic(xs + k * 12, ys, 24, 12, fore, back,
				ASCII12_24[str[k] - ' ']);
		k++;
	}
}
 1004418:	0001883a 	nop
 100441c:	e037883a 	mov	sp,fp
 1004420:	dfc00117 	ldw	ra,4(sp)
 1004424:	df000017 	ldw	fp,0(sp)
 1004428:	dec00204 	addi	sp,sp,8
 100442c:	f800283a 	ret

01004430 <lcdDispDecSmall>:

void lcdDispDecSmall(u16 xs, u16 ys, u16 fore, u16 back, int dec) {
 1004430:	defff504 	addi	sp,sp,-44
 1004434:	dfc00a15 	stw	ra,40(sp)
 1004438:	df000915 	stw	fp,36(sp)
 100443c:	df000904 	addi	fp,sp,36
 1004440:	2011883a 	mov	r8,r4
 1004444:	2809883a 	mov	r4,r5
 1004448:	3007883a 	mov	r3,r6
 100444c:	3805883a 	mov	r2,r7
 1004450:	e23ffc0d 	sth	r8,-16(fp)
 1004454:	e13ffd0d 	sth	r4,-12(fp)
 1004458:	e0fffe0d 	sth	r3,-8(fp)
 100445c:	e0bfff0d 	sth	r2,-4(fp)
	char str[16] = { 0 };
 1004460:	e03ff815 	stw	zero,-32(fp)
 1004464:	e03ff915 	stw	zero,-28(fp)
 1004468:	e03ffa15 	stw	zero,-24(fp)
 100446c:	e03ffb15 	stw	zero,-20(fp)
	sprintf(str, "%d", dec);
 1004470:	e1800217 	ldw	r6,8(fp)
 1004474:	014040b4 	movhi	r5,258
 1004478:	295baf04 	addi	r5,r5,28348
 100447c:	e13ff804 	addi	r4,fp,-32
 1004480:	100d06c0 	call	100d06c <sprintf>
	lcdDispStringSmall(xs, ys, fore, back, str);
 1004484:	e0bffc0b 	ldhu	r2,-16(fp)
 1004488:	e0fffd0b 	ldhu	r3,-12(fp)
 100448c:	e13ffe0b 	ldhu	r4,-8(fp)
 1004490:	e17fff0b 	ldhu	r5,-4(fp)
 1004494:	e1bff804 	addi	r6,fp,-32
 1004498:	d9800015 	stw	r6,0(sp)
 100449c:	280f883a 	mov	r7,r5
 10044a0:	200d883a 	mov	r6,r4
 10044a4:	180b883a 	mov	r5,r3
 10044a8:	1009883a 	mov	r4,r2
 10044ac:	10042500 	call	1004250 <lcdDispStringSmall>
}
 10044b0:	0001883a 	nop
 10044b4:	e037883a 	mov	sp,fp
 10044b8:	dfc00117 	ldw	ra,4(sp)
 10044bc:	df000017 	ldw	fp,0(sp)
 10044c0:	dec00204 	addi	sp,sp,8
 10044c4:	f800283a 	ret

010044c8 <lcdDispDecBig>:

void lcdDispDecBig(u16 xs, u16 ys, u16 fore, u16 back, int dec) {
 10044c8:	defff504 	addi	sp,sp,-44
 10044cc:	dfc00a15 	stw	ra,40(sp)
 10044d0:	df000915 	stw	fp,36(sp)
 10044d4:	df000904 	addi	fp,sp,36
 10044d8:	2011883a 	mov	r8,r4
 10044dc:	2809883a 	mov	r4,r5
 10044e0:	3007883a 	mov	r3,r6
 10044e4:	3805883a 	mov	r2,r7
 10044e8:	e23ffc0d 	sth	r8,-16(fp)
 10044ec:	e13ffd0d 	sth	r4,-12(fp)
 10044f0:	e0fffe0d 	sth	r3,-8(fp)
 10044f4:	e0bfff0d 	sth	r2,-4(fp)
	char str[16] = { 0 };
 10044f8:	e03ff815 	stw	zero,-32(fp)
 10044fc:	e03ff915 	stw	zero,-28(fp)
 1004500:	e03ffa15 	stw	zero,-24(fp)
 1004504:	e03ffb15 	stw	zero,-20(fp)
	sprintf(str, "%d", dec);
 1004508:	e1800217 	ldw	r6,8(fp)
 100450c:	014040b4 	movhi	r5,258
 1004510:	295baf04 	addi	r5,r5,28348
 1004514:	e13ff804 	addi	r4,fp,-32
 1004518:	100d06c0 	call	100d06c <sprintf>
	lcdDispStringBig(xs, ys, fore, back, str);
 100451c:	e0bffc0b 	ldhu	r2,-16(fp)
 1004520:	e0fffd0b 	ldhu	r3,-12(fp)
 1004524:	e13ffe0b 	ldhu	r4,-8(fp)
 1004528:	e17fff0b 	ldhu	r5,-4(fp)
 100452c:	e1bff804 	addi	r6,fp,-32
 1004530:	d9800015 	stw	r6,0(sp)
 1004534:	280f883a 	mov	r7,r5
 1004538:	200d883a 	mov	r6,r4
 100453c:	180b883a 	mov	r5,r3
 1004540:	1009883a 	mov	r4,r2
 1004544:	10043400 	call	1004340 <lcdDispStringBig>
}
 1004548:	0001883a 	nop
 100454c:	e037883a 	mov	sp,fp
 1004550:	dfc00117 	ldw	ra,4(sp)
 1004554:	df000017 	ldw	fp,0(sp)
 1004558:	dec00204 	addi	sp,sp,8
 100455c:	f800283a 	ret

01004560 <lcdDispFloatSmall>:

void lcdDispFloatSmall(u16 xs, u16 ys, u16 fore, u16 back, float flo) {
 1004560:	defff504 	addi	sp,sp,-44
 1004564:	dfc00a15 	stw	ra,40(sp)
 1004568:	df000915 	stw	fp,36(sp)
 100456c:	df000904 	addi	fp,sp,36
 1004570:	2011883a 	mov	r8,r4
 1004574:	2809883a 	mov	r4,r5
 1004578:	3007883a 	mov	r3,r6
 100457c:	3805883a 	mov	r2,r7
 1004580:	e23ffc0d 	sth	r8,-16(fp)
 1004584:	e13ffd0d 	sth	r4,-12(fp)
 1004588:	e0fffe0d 	sth	r3,-8(fp)
 100458c:	e0bfff0d 	sth	r2,-4(fp)
	char str[16] = { 0 };
 1004590:	e03ff815 	stw	zero,-32(fp)
 1004594:	e03ff915 	stw	zero,-28(fp)
 1004598:	e03ffa15 	stw	zero,-24(fp)
 100459c:	e03ffb15 	stw	zero,-20(fp)
	sprintf(str, "%f", flo);
 10045a0:	e1000217 	ldw	r4,8(fp)
 10045a4:	100c9f40 	call	100c9f4 <__extendsfdf2>
 10045a8:	1009883a 	mov	r4,r2
 10045ac:	180b883a 	mov	r5,r3
 10045b0:	200d883a 	mov	r6,r4
 10045b4:	280f883a 	mov	r7,r5
 10045b8:	014040b4 	movhi	r5,258
 10045bc:	295bb004 	addi	r5,r5,28352
 10045c0:	e13ff804 	addi	r4,fp,-32
 10045c4:	100d06c0 	call	100d06c <sprintf>
	lcdDispStringSmall(xs, ys, fore, back, str);
 10045c8:	e0bffc0b 	ldhu	r2,-16(fp)
 10045cc:	e0fffd0b 	ldhu	r3,-12(fp)
 10045d0:	e13ffe0b 	ldhu	r4,-8(fp)
 10045d4:	e17fff0b 	ldhu	r5,-4(fp)
 10045d8:	e1bff804 	addi	r6,fp,-32
 10045dc:	d9800015 	stw	r6,0(sp)
 10045e0:	280f883a 	mov	r7,r5
 10045e4:	200d883a 	mov	r6,r4
 10045e8:	180b883a 	mov	r5,r3
 10045ec:	1009883a 	mov	r4,r2
 10045f0:	10042500 	call	1004250 <lcdDispStringSmall>
}
 10045f4:	0001883a 	nop
 10045f8:	e037883a 	mov	sp,fp
 10045fc:	dfc00117 	ldw	ra,4(sp)
 1004600:	df000017 	ldw	fp,0(sp)
 1004604:	dec00204 	addi	sp,sp,8
 1004608:	f800283a 	ret

0100460c <lcdDispFloatSmall_4>:

void lcdDispFloatSmall_4(u16 xs, u16 ys, u16 fore, u16 back, float flo) {//4
 100460c:	defff404 	addi	sp,sp,-48
 1004610:	dfc00b15 	stw	ra,44(sp)
 1004614:	df000a15 	stw	fp,40(sp)
 1004618:	df000a04 	addi	fp,sp,40
 100461c:	2011883a 	mov	r8,r4
 1004620:	2809883a 	mov	r4,r5
 1004624:	3007883a 	mov	r3,r6
 1004628:	3805883a 	mov	r2,r7
 100462c:	e23ffc0d 	sth	r8,-16(fp)
 1004630:	e13ffd0d 	sth	r4,-12(fp)
 1004634:	e0fffe0d 	sth	r3,-8(fp)
 1004638:	e0bfff0d 	sth	r2,-4(fp)
	char str[16] = { 0 };
 100463c:	e03ff815 	stw	zero,-32(fp)
 1004640:	e03ff915 	stw	zero,-28(fp)
 1004644:	e03ffa15 	stw	zero,-24(fp)
 1004648:	e03ffb15 	stw	zero,-20(fp)
	sprintf(str, "%f", flo);
 100464c:	e1000217 	ldw	r4,8(fp)
 1004650:	100c9f40 	call	100c9f4 <__extendsfdf2>
 1004654:	1009883a 	mov	r4,r2
 1004658:	180b883a 	mov	r5,r3
 100465c:	e0bff804 	addi	r2,fp,-32
 1004660:	200d883a 	mov	r6,r4
 1004664:	280f883a 	mov	r7,r5
 1004668:	014040b4 	movhi	r5,258
 100466c:	295bb004 	addi	r5,r5,28352
 1004670:	1009883a 	mov	r4,r2
 1004674:	100d06c0 	call	100d06c <sprintf>
	for(int i = 0; i < 16; i++){
 1004678:	e03ff715 	stw	zero,-36(fp)
 100467c:	00000a06 	br	10046a8 <lcdDispFloatSmall_4+0x9c>
		if(i == 5){
 1004680:	e0bff717 	ldw	r2,-36(fp)
 1004684:	10800158 	cmpnei	r2,r2,5
 1004688:	1000041e 	bne	r2,zero,100469c <lcdDispFloatSmall_4+0x90>
			str[i] = 0;
 100468c:	e0fff804 	addi	r3,fp,-32
 1004690:	e0bff717 	ldw	r2,-36(fp)
 1004694:	1885883a 	add	r2,r3,r2
 1004698:	10000005 	stb	zero,0(r2)
}

void lcdDispFloatSmall_4(u16 xs, u16 ys, u16 fore, u16 back, float flo) {//4
	char str[16] = { 0 };
	sprintf(str, "%f", flo);
	for(int i = 0; i < 16; i++){
 100469c:	e0bff717 	ldw	r2,-36(fp)
 10046a0:	10800044 	addi	r2,r2,1
 10046a4:	e0bff715 	stw	r2,-36(fp)
 10046a8:	e0bff717 	ldw	r2,-36(fp)
 10046ac:	10800410 	cmplti	r2,r2,16
 10046b0:	103ff31e 	bne	r2,zero,1004680 <__alt_data_end+0xff804680>
			str[i+4] = 0;
			break;
		}
		*/
	}
	lcdDispStringSmall(xs, ys, fore, back, str);
 10046b4:	e0fffc0b 	ldhu	r3,-16(fp)
 10046b8:	e13ffd0b 	ldhu	r4,-12(fp)
 10046bc:	e17ffe0b 	ldhu	r5,-8(fp)
 10046c0:	e1bfff0b 	ldhu	r6,-4(fp)
 10046c4:	e0bff804 	addi	r2,fp,-32
 10046c8:	d8800015 	stw	r2,0(sp)
 10046cc:	300f883a 	mov	r7,r6
 10046d0:	280d883a 	mov	r6,r5
 10046d4:	200b883a 	mov	r5,r4
 10046d8:	1809883a 	mov	r4,r3
 10046dc:	10042500 	call	1004250 <lcdDispStringSmall>
}
 10046e0:	0001883a 	nop
 10046e4:	e037883a 	mov	sp,fp
 10046e8:	dfc00117 	ldw	ra,4(sp)
 10046ec:	df000017 	ldw	fp,0(sp)
 10046f0:	dec00204 	addi	sp,sp,8
 10046f4:	f800283a 	ret

010046f8 <lcdDispFloatBig>:

void lcdDispFloatBig(u16 xs, u16 ys, u16 fore, u16 back, float flo,int weishu) {
 10046f8:	defff504 	addi	sp,sp,-44
 10046fc:	dfc00a15 	stw	ra,40(sp)
 1004700:	df000915 	stw	fp,36(sp)
 1004704:	df000904 	addi	fp,sp,36
 1004708:	2011883a 	mov	r8,r4
 100470c:	2809883a 	mov	r4,r5
 1004710:	3007883a 	mov	r3,r6
 1004714:	3805883a 	mov	r2,r7
 1004718:	e23ffc0d 	sth	r8,-16(fp)
 100471c:	e13ffd0d 	sth	r4,-12(fp)
 1004720:	e0fffe0d 	sth	r3,-8(fp)
 1004724:	e0bfff0d 	sth	r2,-4(fp)
	char str[16] = { 0 };
 1004728:	e03ff815 	stw	zero,-32(fp)
 100472c:	e03ff915 	stw	zero,-28(fp)
 1004730:	e03ffa15 	stw	zero,-24(fp)
 1004734:	e03ffb15 	stw	zero,-20(fp)
	switch(weishu)
 1004738:	e0800317 	ldw	r2,12(fp)
 100473c:	108001e8 	cmpgeui	r2,r2,7
 1004740:	1000501e 	bne	r2,zero,1004884 <lcdDispFloatBig+0x18c>
 1004744:	e0800317 	ldw	r2,12(fp)
 1004748:	100690ba 	slli	r3,r2,2
 100474c:	00804034 	movhi	r2,256
 1004750:	1091d804 	addi	r2,r2,18272
 1004754:	1885883a 	add	r2,r3,r2
 1004758:	10800017 	ldw	r2,0(r2)
 100475c:	1000683a 	jmp	r2
 1004760:	01004884 	movi	r4,290
 1004764:	0100477c 	xorhi	r4,zero,285
 1004768:	010047a8 	cmpgeui	r4,zero,286
 100476c:	010047d4 	movui	r4,287
 1004770:	01004800 	call	100480 <__alt_mem_generic_tristate_controller+0x100480>
 1004774:	0100482c 	andhi	r4,zero,288
 1004778:	01004858 	cmpnei	r4,zero,289
	{
       case 1:sprintf(str, "%.1f", flo);break;
 100477c:	e1000217 	ldw	r4,8(fp)
 1004780:	100c9f40 	call	100c9f4 <__extendsfdf2>
 1004784:	1009883a 	mov	r4,r2
 1004788:	180b883a 	mov	r5,r3
 100478c:	200d883a 	mov	r6,r4
 1004790:	280f883a 	mov	r7,r5
 1004794:	014040b4 	movhi	r5,258
 1004798:	295bb104 	addi	r5,r5,28356
 100479c:	e13ff804 	addi	r4,fp,-32
 10047a0:	100d06c0 	call	100d06c <sprintf>
 10047a4:	00004106 	br	10048ac <lcdDispFloatBig+0x1b4>
       case 2:sprintf(str, "%.2f", flo);break;
 10047a8:	e1000217 	ldw	r4,8(fp)
 10047ac:	100c9f40 	call	100c9f4 <__extendsfdf2>
 10047b0:	1009883a 	mov	r4,r2
 10047b4:	180b883a 	mov	r5,r3
 10047b8:	200d883a 	mov	r6,r4
 10047bc:	280f883a 	mov	r7,r5
 10047c0:	014040b4 	movhi	r5,258
 10047c4:	295bb304 	addi	r5,r5,28364
 10047c8:	e13ff804 	addi	r4,fp,-32
 10047cc:	100d06c0 	call	100d06c <sprintf>
 10047d0:	00003606 	br	10048ac <lcdDispFloatBig+0x1b4>
       case 3:sprintf(str, "%.3f", flo);break;
 10047d4:	e1000217 	ldw	r4,8(fp)
 10047d8:	100c9f40 	call	100c9f4 <__extendsfdf2>
 10047dc:	1009883a 	mov	r4,r2
 10047e0:	180b883a 	mov	r5,r3
 10047e4:	200d883a 	mov	r6,r4
 10047e8:	280f883a 	mov	r7,r5
 10047ec:	014040b4 	movhi	r5,258
 10047f0:	295bb504 	addi	r5,r5,28372
 10047f4:	e13ff804 	addi	r4,fp,-32
 10047f8:	100d06c0 	call	100d06c <sprintf>
 10047fc:	00002b06 	br	10048ac <lcdDispFloatBig+0x1b4>
       case 4:sprintf(str, "%.4f", flo);break;
 1004800:	e1000217 	ldw	r4,8(fp)
 1004804:	100c9f40 	call	100c9f4 <__extendsfdf2>
 1004808:	1009883a 	mov	r4,r2
 100480c:	180b883a 	mov	r5,r3
 1004810:	200d883a 	mov	r6,r4
 1004814:	280f883a 	mov	r7,r5
 1004818:	014040b4 	movhi	r5,258
 100481c:	295bb704 	addi	r5,r5,28380
 1004820:	e13ff804 	addi	r4,fp,-32
 1004824:	100d06c0 	call	100d06c <sprintf>
 1004828:	00002006 	br	10048ac <lcdDispFloatBig+0x1b4>
       case 5:sprintf(str, "%.5f", flo);break;
 100482c:	e1000217 	ldw	r4,8(fp)
 1004830:	100c9f40 	call	100c9f4 <__extendsfdf2>
 1004834:	1009883a 	mov	r4,r2
 1004838:	180b883a 	mov	r5,r3
 100483c:	200d883a 	mov	r6,r4
 1004840:	280f883a 	mov	r7,r5
 1004844:	014040b4 	movhi	r5,258
 1004848:	295bb904 	addi	r5,r5,28388
 100484c:	e13ff804 	addi	r4,fp,-32
 1004850:	100d06c0 	call	100d06c <sprintf>
 1004854:	00001506 	br	10048ac <lcdDispFloatBig+0x1b4>
       case 6:sprintf(str, "%.6f", flo);break;
 1004858:	e1000217 	ldw	r4,8(fp)
 100485c:	100c9f40 	call	100c9f4 <__extendsfdf2>
 1004860:	1009883a 	mov	r4,r2
 1004864:	180b883a 	mov	r5,r3
 1004868:	200d883a 	mov	r6,r4
 100486c:	280f883a 	mov	r7,r5
 1004870:	014040b4 	movhi	r5,258
 1004874:	295bbb04 	addi	r5,r5,28396
 1004878:	e13ff804 	addi	r4,fp,-32
 100487c:	100d06c0 	call	100d06c <sprintf>
 1004880:	00000a06 	br	10048ac <lcdDispFloatBig+0x1b4>
       default: sprintf(str, "%.6f", flo);
 1004884:	e1000217 	ldw	r4,8(fp)
 1004888:	100c9f40 	call	100c9f4 <__extendsfdf2>
 100488c:	1009883a 	mov	r4,r2
 1004890:	180b883a 	mov	r5,r3
 1004894:	200d883a 	mov	r6,r4
 1004898:	280f883a 	mov	r7,r5
 100489c:	014040b4 	movhi	r5,258
 10048a0:	295bbb04 	addi	r5,r5,28396
 10048a4:	e13ff804 	addi	r4,fp,-32
 10048a8:	100d06c0 	call	100d06c <sprintf>
	}
	lcdDispStringBig(xs, ys, fore, back, str);
 10048ac:	e0bffc0b 	ldhu	r2,-16(fp)
 10048b0:	e0fffd0b 	ldhu	r3,-12(fp)
 10048b4:	e13ffe0b 	ldhu	r4,-8(fp)
 10048b8:	e17fff0b 	ldhu	r5,-4(fp)
 10048bc:	e1bff804 	addi	r6,fp,-32
 10048c0:	d9800015 	stw	r6,0(sp)
 10048c4:	280f883a 	mov	r7,r5
 10048c8:	200d883a 	mov	r6,r4
 10048cc:	180b883a 	mov	r5,r3
 10048d0:	1009883a 	mov	r4,r2
 10048d4:	10043400 	call	1004340 <lcdDispStringBig>
}
 10048d8:	0001883a 	nop
 10048dc:	e037883a 	mov	sp,fp
 10048e0:	dfc00117 	ldw	ra,4(sp)
 10048e4:	df000017 	ldw	fp,0(sp)
 10048e8:	dec00204 	addi	sp,sp,8
 10048ec:	f800283a 	ret

010048f0 <DisplayPic>:



//
void DisplayPic(u16 x_start,u16 y_start,u16 width,u16 depth, u8 *p,u8 factor)
{
 10048f0:	defff604 	addi	sp,sp,-40
 10048f4:	dfc00915 	stw	ra,36(sp)
 10048f8:	df000815 	stw	fp,32(sp)
 10048fc:	df000804 	addi	fp,sp,32
 1004900:	2011883a 	mov	r8,r4
 1004904:	3009883a 	mov	r4,r6
 1004908:	3807883a 	mov	r3,r7
 100490c:	e0800317 	ldw	r2,12(fp)
 1004910:	e23ffb0d 	sth	r8,-20(fp)
 1004914:	e17ffc0d 	sth	r5,-16(fp)
 1004918:	e13ffd0d 	sth	r4,-12(fp)
 100491c:	e0fffe0d 	sth	r3,-8(fp)
 1004920:	e0bfff05 	stb	r2,-4(fp)
	u16 x,y;
	u32 i=0;
 1004924:	e03ff915 	stw	zero,-28(fp)
	u16 color;
	for(y=0;y<depth*factor;y++)
 1004928:	e03ff88d 	sth	zero,-30(fp)
 100492c:	00003306 	br	10049fc <DisplayPic+0x10c>
	{
		for(x=0;x<width*factor;x++)
 1004930:	e03ff80d 	sth	zero,-32(fp)
 1004934:	00002906 	br	10049dc <DisplayPic+0xec>
		{
			i=((y/factor)*width+(x/factor))*2;
 1004938:	e0fff88b 	ldhu	r3,-30(fp)
 100493c:	e0bfff03 	ldbu	r2,-4(fp)
 1004940:	1887283a 	div	r3,r3,r2
 1004944:	e0bffd0b 	ldhu	r2,-12(fp)
 1004948:	1887383a 	mul	r3,r3,r2
 100494c:	e13ff80b 	ldhu	r4,-32(fp)
 1004950:	e0bfff03 	ldbu	r2,-4(fp)
 1004954:	2085283a 	div	r2,r4,r2
 1004958:	1885883a 	add	r2,r3,r2
 100495c:	1085883a 	add	r2,r2,r2
 1004960:	e0bff915 	stw	r2,-28(fp)
			color=p[i]*256+p[i+1];
 1004964:	e0c00217 	ldw	r3,8(fp)
 1004968:	e0bff917 	ldw	r2,-28(fp)
 100496c:	1885883a 	add	r2,r3,r2
 1004970:	10800003 	ldbu	r2,0(r2)
 1004974:	10803fcc 	andi	r2,r2,255
 1004978:	1004923a 	slli	r2,r2,8
 100497c:	1009883a 	mov	r4,r2
 1004980:	e0bff917 	ldw	r2,-28(fp)
 1004984:	10800044 	addi	r2,r2,1
 1004988:	e0c00217 	ldw	r3,8(fp)
 100498c:	1885883a 	add	r2,r3,r2
 1004990:	10800003 	ldbu	r2,0(r2)
 1004994:	10803fcc 	andi	r2,r2,255
 1004998:	2085883a 	add	r2,r4,r2
 100499c:	e0bffa0d 	sth	r2,-24(fp)
			lcdDrawPoint(x+x_start, y+y_start ,color);
 10049a0:	e0fff80b 	ldhu	r3,-32(fp)
 10049a4:	e0bffb0b 	ldhu	r2,-20(fp)
 10049a8:	1885883a 	add	r2,r3,r2
 10049ac:	113fffcc 	andi	r4,r2,65535
 10049b0:	e0fff88b 	ldhu	r3,-30(fp)
 10049b4:	e0bffc0b 	ldhu	r2,-16(fp)
 10049b8:	1885883a 	add	r2,r3,r2
 10049bc:	10bfffcc 	andi	r2,r2,65535
 10049c0:	e0fffa0b 	ldhu	r3,-24(fp)
 10049c4:	180d883a 	mov	r6,r3
 10049c8:	100b883a 	mov	r5,r2
 10049cc:	10031d40 	call	10031d4 <lcdDrawPoint>
	u16 x,y;
	u32 i=0;
	u16 color;
	for(y=0;y<depth*factor;y++)
	{
		for(x=0;x<width*factor;x++)
 10049d0:	e0bff80b 	ldhu	r2,-32(fp)
 10049d4:	10800044 	addi	r2,r2,1
 10049d8:	e0bff80d 	sth	r2,-32(fp)
 10049dc:	e0fff80b 	ldhu	r3,-32(fp)
 10049e0:	e13ffd0b 	ldhu	r4,-12(fp)
 10049e4:	e0bfff03 	ldbu	r2,-4(fp)
 10049e8:	2085383a 	mul	r2,r4,r2
 10049ec:	18bfd216 	blt	r3,r2,1004938 <__alt_data_end+0xff804938>
void DisplayPic(u16 x_start,u16 y_start,u16 width,u16 depth, u8 *p,u8 factor)
{
	u16 x,y;
	u32 i=0;
	u16 color;
	for(y=0;y<depth*factor;y++)
 10049f0:	e0bff88b 	ldhu	r2,-30(fp)
 10049f4:	10800044 	addi	r2,r2,1
 10049f8:	e0bff88d 	sth	r2,-30(fp)
 10049fc:	e0fff88b 	ldhu	r3,-30(fp)
 1004a00:	e13ffe0b 	ldhu	r4,-8(fp)
 1004a04:	e0bfff03 	ldbu	r2,-4(fp)
 1004a08:	2085383a 	mul	r2,r4,r2
 1004a0c:	18bfc816 	blt	r3,r2,1004930 <__alt_data_end+0xff804930>
			i=((y/factor)*width+(x/factor))*2;
			color=p[i]*256+p[i+1];
			lcdDrawPoint(x+x_start, y+y_start ,color);
		}
	}
}
 1004a10:	0001883a 	nop
 1004a14:	e037883a 	mov	sp,fp
 1004a18:	dfc00117 	ldw	ra,4(sp)
 1004a1c:	df000017 	ldw	fp,0(sp)
 1004a20:	dec00204 	addi	sp,sp,8
 1004a24:	f800283a 	ret

01004a28 <lcdDispNumtable>:

void lcdDispNumtable(int Num_X,int Num_Y){//
 1004a28:	defffa04 	addi	sp,sp,-24
 1004a2c:	dfc00515 	stw	ra,20(sp)
 1004a30:	df000415 	stw	fp,16(sp)
 1004a34:	df000404 	addi	fp,sp,16
 1004a38:	e13ffe15 	stw	r4,-8(fp)
 1004a3c:	e17fff15 	stw	r5,-4(fp)
	lcddrawsqur(Num_X,Num_X+50,Num_Y,Num_Y+50,BLACK, "  1");
 1004a40:	e0bffe17 	ldw	r2,-8(fp)
 1004a44:	10ffffcc 	andi	r3,r2,65535
 1004a48:	e0bffe17 	ldw	r2,-8(fp)
 1004a4c:	10800c84 	addi	r2,r2,50
 1004a50:	113fffcc 	andi	r4,r2,65535
 1004a54:	e0bfff17 	ldw	r2,-4(fp)
 1004a58:	117fffcc 	andi	r5,r2,65535
 1004a5c:	e0bfff17 	ldw	r2,-4(fp)
 1004a60:	10800c84 	addi	r2,r2,50
 1004a64:	11bfffcc 	andi	r6,r2,65535
 1004a68:	008040b4 	movhi	r2,258
 1004a6c:	109bbd04 	addi	r2,r2,28404
 1004a70:	d8800115 	stw	r2,4(sp)
 1004a74:	d8000015 	stw	zero,0(sp)
 1004a78:	300f883a 	mov	r7,r6
 1004a7c:	280d883a 	mov	r6,r5
 1004a80:	200b883a 	mov	r5,r4
 1004a84:	1809883a 	mov	r4,r3
 1004a88:	100502c0 	call	100502c <lcddrawsqur>
	lcddrawsqur(Num_X+50,Num_X+100,Num_Y,Num_Y+50,BLACK, "  2");
 1004a8c:	e0bffe17 	ldw	r2,-8(fp)
 1004a90:	10800c84 	addi	r2,r2,50
 1004a94:	10ffffcc 	andi	r3,r2,65535
 1004a98:	e0bffe17 	ldw	r2,-8(fp)
 1004a9c:	10801904 	addi	r2,r2,100
 1004aa0:	113fffcc 	andi	r4,r2,65535
 1004aa4:	e0bfff17 	ldw	r2,-4(fp)
 1004aa8:	117fffcc 	andi	r5,r2,65535
 1004aac:	e0bfff17 	ldw	r2,-4(fp)
 1004ab0:	10800c84 	addi	r2,r2,50
 1004ab4:	11bfffcc 	andi	r6,r2,65535
 1004ab8:	008040b4 	movhi	r2,258
 1004abc:	109bbe04 	addi	r2,r2,28408
 1004ac0:	d8800115 	stw	r2,4(sp)
 1004ac4:	d8000015 	stw	zero,0(sp)
 1004ac8:	300f883a 	mov	r7,r6
 1004acc:	280d883a 	mov	r6,r5
 1004ad0:	200b883a 	mov	r5,r4
 1004ad4:	1809883a 	mov	r4,r3
 1004ad8:	100502c0 	call	100502c <lcddrawsqur>
	lcddrawsqur(Num_X+100,Num_X+150,Num_Y,Num_Y+50,BLACK, "  3");
 1004adc:	e0bffe17 	ldw	r2,-8(fp)
 1004ae0:	10801904 	addi	r2,r2,100
 1004ae4:	10ffffcc 	andi	r3,r2,65535
 1004ae8:	e0bffe17 	ldw	r2,-8(fp)
 1004aec:	10802584 	addi	r2,r2,150
 1004af0:	113fffcc 	andi	r4,r2,65535
 1004af4:	e0bfff17 	ldw	r2,-4(fp)
 1004af8:	117fffcc 	andi	r5,r2,65535
 1004afc:	e0bfff17 	ldw	r2,-4(fp)
 1004b00:	10800c84 	addi	r2,r2,50
